   1               		.file	"fat.c"
   2               	__SREG__ = 0x3f
   3               	__SP_H__ = 0x3e
   4               	__SP_L__ = 0x3d
   5               	__CCP__ = 0x34
   6               	__tmp_reg__ = 0
   7               	__zero_reg__ = 1
  15               	.Ltext0:
  16               	.global	fat_writeSector
  18               	fat_writeSector:
  19               	.LFB0:
  20               	.LM1:
  21               	.LVL0:
  22               	/* prologue: function */
  23               	/* frame size = 0 */
  24               	/* stack size = 0 */
  25               	.L__stack_usage = 0
  26               	.LM2:
  27 0000 1092 0000 		sts fat+4,__zero_reg__
  28               	.LM3:
  29 0004 40E0      		ldi r20,lo8(fat+24)
  30 0006 50E0      		ldi r21,hi8(fat+24)
  31 0008 0E94 0000 		call mmc_write_sector
  32               	.LVL1:
  33               	/* epilogue start */
  34               	.LM4:
  35 000c 0895      		ret
  36               	.LFE0:
  38               	.global	fat_loadSector
  40               	fat_loadSector:
  41               	.LFB1:
  42               	.LM5:
  43               	.LVL2:
  44 000e EF92      		push r14
  45 0010 FF92      		push r15
  46 0012 0F93      		push r16
  47 0014 1F93      		push r17
  48               	/* prologue: function */
  49               	/* frame size = 0 */
  50               	/* stack size = 4 */
  51               	.L__stack_usage = 4
  52 0016 7B01      		movw r14,r22
  53 0018 8C01      		movw r16,r24
  54               	.LM6:
  55 001a 6091 0000 		lds r22,file+6
  56 001e 7091 0000 		lds r23,file+6+1
  57 0022 8091 0000 		lds r24,file+6+2
  58 0026 9091 0000 		lds r25,file+6+3
  59               	.LVL3:
  60 002a E616      		cp r14,r22
  61 002c F706      		cpc r15,r23
  62 002e 0807      		cpc r16,r24
  63 0030 1907      		cpc r17,r25
  64 0032 01F0      		breq .L3
  65               	.LM7:
  66 0034 2091 0000 		lds r18,fat+4
  67 0038 2130      		cpi r18,lo8(1)
  68 003a 01F4      		brne .L4
  69               	.LM8:
  70 003c 1092 0000 		sts fat+4,__zero_reg__
  71               	.LM9:
  72 0040 40E0      		ldi r20,lo8(fat+24)
  73 0042 50E0      		ldi r21,hi8(fat+24)
  74 0044 0E94 0000 		call mmc_write_sector
  75               	.L4:
  76               	.LM10:
  77 0048 8091 0000 		lds r24,file+6
  78 004c 9091 0000 		lds r25,file+6+1
  79 0050 A091 0000 		lds r26,file+6+2
  80 0054 B091 0000 		lds r27,file+6+3
  81 0058 8093 0000 		sts fat,r24
  82 005c 9093 0000 		sts fat+1,r25
  83 0060 A093 0000 		sts fat+2,r26
  84 0064 B093 0000 		sts fat+3,r27
  85               	.LM11:
  86 0068 C801      		movw r24,r16
  87 006a B701      		movw r22,r14
  88 006c 40E0      		ldi r20,lo8(fat+24)
  89 006e 50E0      		ldi r21,hi8(fat+24)
  90 0070 0E94 0000 		call mmc_read_sector
  91               	.LM12:
  92 0074 E092 0000 		sts file+6,r14
  93 0078 F092 0000 		sts file+6+1,r15
  94 007c 0093 0000 		sts file+6+2,r16
  95 0080 1093 0000 		sts file+6+3,r17
  96               	.L3:
  97               	.LM13:
  98 0084 81E0      		ldi r24,lo8(1)
  99               	/* epilogue start */
 100 0086 1F91      		pop r17
 101 0088 0F91      		pop r16
 102 008a FF90      		pop r15
 103 008c EF90      		pop r14
 104               	.LVL4:
 105 008e 0895      		ret
 106               	.LFE1:
 109               	fat_getFreeRowsOfCluster.clone.1:
 110               	.LFB20:
 111               	.LM14:
 112               	.LVL5:
 113 0090 DF92      		push r13
 114 0092 EF92      		push r14
 115 0094 FF92      		push r15
 116 0096 0F93      		push r16
 117 0098 1F93      		push r17
 118               	/* prologue: function */
 119               	/* frame size = 0 */
 120               	/* stack size = 5 */
 121               	.L__stack_usage = 5
 122 009a 7B01      		movw r14,r22
 123 009c 8C01      		movw r16,r24
 124               	.LVL6:
 125               	.LM15:
 126 009e DD24      		clr r13
 127               	.LVL7:
 128               	.L10:
 129               	.LM16:
 130 00a0 C801      		movw r24,r16
 131 00a2 B701      		movw r22,r14
 132 00a4 6D0D      		add r22,r13
 133 00a6 711D      		adc r23,__zero_reg__
 134 00a8 811D      		adc r24,__zero_reg__
 135 00aa 911D      		adc r25,__zero_reg__
 136 00ac 0E94 0000 		call fat_loadSector
 137               	.LVL8:
 138 00b0 2091 0000 		lds r18,match.1610
 139 00b4 E0E0      		ldi r30,lo8(fat+24)
 140 00b6 F0E0      		ldi r31,hi8(fat+24)
 141               	.LM17:
 142 00b8 80E0      		ldi r24,lo8(0)
 143 00ba 90E0      		ldi r25,hi8(0)
 144               	.LVL9:
 145               	.L9:
 146               	.LM18:
 147 00bc 3081      		ld r19,Z
 148 00be 3323      		tst r19
 149 00c0 01F0      		breq .L6
 150 00c2 353E      		cpi r19,lo8(-27)
 151 00c4 01F4      		brne .L11
 152               	.L6:
 153               	.LM19:
 154 00c6 2F5F      		subi r18,lo8(-(1))
 155               	.LM20:
 156 00c8 2130      		cpi r18,lo8(1)
 157 00ca 01F4      		brne .L7
 158               	.LM21:
 159 00cc 25E0      		ldi r18,5
 160 00ce 9695      	1:	lsr r25
 161 00d0 8795      		ror r24
 162 00d2 2A95      		dec r18
 163 00d4 01F4      		brne 1b
 164               	.LVL10:
 165 00d6 8093 0000 		sts file+16,r24
 166               	.LM22:
 167 00da 1092 0000 		sts match.1610,__zero_reg__
 168               	.LM23:
 169 00de 81E0      		ldi r24,lo8(1)
 170 00e0 00C0      		rjmp .L8
 171               	.LVL11:
 172               	.L11:
 173               	.LM24:
 174 00e2 20E0      		ldi r18,lo8(0)
 175               	.L7:
 176               	.LM25:
 177 00e4 8096      		adiw r24,32
 178               	.LVL12:
 179 00e6 B096      		adiw r30,32
 180 00e8 32E0      		ldi r19,hi8(512)
 181 00ea 8030      		cpi r24,lo8(512)
 182 00ec 9307      		cpc r25,r19
 183 00ee 01F4      		brne .L9
 184 00f0 2093 0000 		sts match.1610,r18
 185               	.LM26:
 186 00f4 D394      		inc r13
 187               	.LVL13:
 188 00f6 8091 0000 		lds r24,fat+21
 189               	.LVL14:
 190 00fa D816      		cp r13,r24
 191 00fc 00F0      		brlo .L10
 192               	.LM27:
 193 00fe 80E0      		ldi r24,lo8(0)
 194               	.L8:
 195               	/* epilogue start */
 196               	.LM28:
 197 0100 1F91      		pop r17
 198 0102 0F91      		pop r16
 199 0104 FF90      		pop r15
 200 0106 EF90      		pop r14
 201               	.LVL15:
 202 0108 DF90      		pop r13
 203               	.LVL16:
 204 010a 0895      		ret
 205               	.LFE20:
 207               	.global	fat_clustToSec
 209               	fat_clustToSec:
 210               	.LFB2:
 211               	.LM29:
 212               	.LVL17:
 213               	/* prologue: function */
 214               	/* frame size = 0 */
 215               	/* stack size = 0 */
 216               	.L__stack_usage = 0
 217               	.LM30:
 218 010c 6250      		subi r22,lo8(-(-2))
 219 010e 7040      		sbci r23,hi8(-(-2))
 220 0110 8040      		sbci r24,hlo8(-(-2))
 221 0112 9040      		sbci r25,hhi8(-(-2))
 222               	.LVL18:
 223 0114 2091 0000 		lds r18,fat+21
 224 0118 30E0      		ldi r19,lo8(0)
 225 011a 40E0      		ldi r20,lo8(0)
 226 011c 50E0      		ldi r21,hi8(0)
 227 011e 0E94 0000 		call __mulsi3
 228               	.LVL19:
 229 0122 9B01      		movw r18,r22
 230 0124 AC01      		movw r20,r24
 231 0126 8091 0000 		lds r24,fat+13
 232 012a 9091 0000 		lds r25,fat+13+1
 233 012e A091 0000 		lds r26,fat+13+2
 234 0132 B091 0000 		lds r27,fat+13+3
 235 0136 280F      		add r18,r24
 236 0138 391F      		adc r19,r25
 237 013a 4A1F      		adc r20,r26
 238 013c 5B1F      		adc r21,r27
 239               	.LM31:
 240 013e B901      		movw r22,r18
 241 0140 CA01      		movw r24,r20
 242               	/* epilogue start */
 243 0142 0895      		ret
 244               	.LFE2:
 246               	.global	fat_secToClust
 248               	fat_secToClust:
 249               	.LFB3:
 250               	.LM32:
 251               	.LVL20:
 252               	/* prologue: function */
 253               	/* frame size = 0 */
 254               	/* stack size = 0 */
 255               	.L__stack_usage = 0
 256               	.LM33:
 257 0144 2091 0000 		lds r18,fat+13
 258 0148 3091 0000 		lds r19,fat+13+1
 259 014c 4091 0000 		lds r20,fat+13+2
 260 0150 5091 0000 		lds r21,fat+13+3
 261 0154 621B      		sub r22,r18
 262 0156 730B      		sbc r23,r19
 263 0158 840B      		sbc r24,r20
 264 015a 950B      		sbc r25,r21
 265               	.LVL21:
 266 015c 2091 0000 		lds r18,fat+21
 267 0160 30E0      		ldi r19,lo8(0)
 268 0162 40E0      		ldi r20,lo8(0)
 269 0164 50E0      		ldi r21,hi8(0)
 270 0166 0E94 0000 		call __udivmodsi4
 271 016a 2E5F      		subi r18,lo8(-(2))
 272 016c 3F4F      		sbci r19,hi8(-(2))
 273 016e 4F4F      		sbci r20,hlo8(-(2))
 274 0170 5F4F      		sbci r21,hhi8(-(2))
 275               	.LM34:
 276 0172 B901      		movw r22,r18
 277 0174 CA01      		movw r24,r20
 278               	/* epilogue start */
 279 0176 0895      		ret
 280               	.LFE3:
 282               	.global	fat_loadRowOfSector
 284               	fat_loadRowOfSector:
 285               	.LFB4:
 286               	.LM35:
 287               	.LVL22:
 288               	/* prologue: function */
 289               	/* frame size = 0 */
 290               	/* stack size = 0 */
 291               	.L__stack_usage = 0
 292 0178 FC01      		movw r30,r24
 293               	.LVL23:
 294               	.LM36:
 295 017a DC01      		movw r26,r24
 296 017c A050      		subi r26,lo8(-(fat+44))
 297 017e B040      		sbci r27,hi8(-(fat+44))
 298 0180 2D91      		ld r18,X+
 299 0182 3C91      		ld r19,X
 300 0184 40E0      		ldi r20,lo8(0)
 301 0186 50E0      		ldi r21,hi8(0)
 302               	.LM37:
 303 0188 A901      		movw r20,r18
 304 018a 3327      		clr r19
 305 018c 2227      		clr r18
 306               	.LM38:
 307 018e DC01      		movw r26,r24
 308 0190 A050      		subi r26,lo8(-(fat+50))
 309 0192 B040      		sbci r27,hi8(-(fat+50))
 310 0194 6D91      		ld r22,X+
 311 0196 7C91      		ld r23,X
 312 0198 80E0      		ldi r24,lo8(0)
 313 019a 90E0      		ldi r25,hi8(0)
 314               	.LVL24:
 315 019c 262B      		or r18,r22
 316 019e 372B      		or r19,r23
 317 01a0 482B      		or r20,r24
 318 01a2 592B      		or r21,r25
 319 01a4 2093 0000 		sts file+17,r18
 320 01a8 3093 0000 		sts file+17+1,r19
 321 01ac 4093 0000 		sts file+17+2,r20
 322 01b0 5093 0000 		sts file+17+3,r21
 323               	.LVL25:
 324               	.LM39:
 325 01b4 E050      		subi r30,lo8(-(fat+52))
 326 01b6 F040      		sbci r31,hi8(-(fat+52))
 327               	.LVL26:
 328 01b8 8081      		ld r24,Z
 329 01ba 9181      		ldd r25,Z+1
 330 01bc A281      		ldd r26,Z+2
 331 01be B381      		ldd r27,Z+3
 332 01c0 8093 0000 		sts file+10,r24
 333 01c4 9093 0000 		sts file+10+1,r25
 334 01c8 A093 0000 		sts file+10+2,r26
 335 01cc B093 0000 		sts file+10+3,r27
 336               	/* epilogue start */
 337               	.LM40:
 338 01d0 0895      		ret
 339               	.LFE4:
 342               	fat_loadFileDataFromCluster:
 343               	.LFB5:
 344               	.LM41:
 345               	.LVL27:
 346 01d2 4F92      		push r4
 347 01d4 5F92      		push r5
 348 01d6 6F92      		push r6
 349 01d8 7F92      		push r7
 350 01da 9F92      		push r9
 351 01dc AF92      		push r10
 352 01de BF92      		push r11
 353 01e0 CF92      		push r12
 354 01e2 DF92      		push r13
 355 01e4 EF92      		push r14
 356 01e6 FF92      		push r15
 357 01e8 0F93      		push r16
 358 01ea 1F93      		push r17
 359 01ec DF93      		push r29
 360 01ee CF93      		push r28
 361 01f0 00D0      		rcall .
 362 01f2 0F92      		push __tmp_reg__
 363 01f4 CDB7      		in r28,__SP_L__
 364 01f6 DEB7      		in r29,__SP_H__
 365               	/* prologue: function */
 366               	/* frame size = 3 */
 367               	/* stack size = 18 */
 368               	.L__stack_usage = 18
 369 01f8 2B01      		movw r4,r22
 370 01fa 3C01      		movw r6,r24
 371 01fc 5A01      		movw r10,r20
 372               	.LVL28:
 373               	.LM42:
 374 01fe DD24      		clr r13
 375               	.LVL29:
 376               	.L27:
 377               	.LM43:
 378 0200 8301      		movw r16,r6
 379 0202 7201      		movw r14,r4
 380 0204 ED0C      		add r14,r13
 381 0206 F11C      		adc r15,__zero_reg__
 382 0208 011D      		adc r16,__zero_reg__
 383 020a 111D      		adc r17,__zero_reg__
 384 020c C801      		movw r24,r16
 385 020e B701      		movw r22,r14
 386 0210 40E0      		ldi r20,lo8(fat+24)
 387 0212 50E0      		ldi r21,hi8(fat+24)
 388 0214 0E94 0000 		call mmc_read_sector
 389               	.LM44:
 390 0218 E092 0000 		sts file+6,r14
 391 021c F092 0000 		sts file+6+1,r15
 392 0220 0093 0000 		sts file+6+2,r16
 393 0224 1093 0000 		sts file+6+3,r17
 394 0228 00E0      		ldi r16,lo8(fat+24)
 395 022a 10E0      		ldi r17,hi8(fat+24)
 396               	.LM45:
 397 022c 60E0      		ldi r22,lo8(0)
 398 022e 70E0      		ldi r23,hi8(0)
 399               	.LVL30:
 400               	.L26:
 401               	.LM46:
 402 0230 F801      		movw r30,r16
 403 0232 8081      		ld r24,Z
 404 0234 8823      		tst r24
 405 0236 01F4      		brne .+2
 406 0238 00C0      		rjmp .L28
 407               	.LM47:
 408 023a 9385      		ldd r25,Z+11
 409 023c 9031      		cpi r25,lo8(16)
 410 023e 01F0      		breq .L19
 411               	.LM48:
 412 0240 9032      		cpi r25,lo8(32)
 413 0242 01F0      		breq .+2
 414 0244 00C0      		rjmp .L20
 415               	.L19:
 416               	.LM49:
 417 0246 853E      		cpi r24,lo8(-27)
 418 0248 01F4      		brne .+2
 419 024a 00C0      		rjmp .L20
 420               	.LM50:
 421 024c CC24      		clr r12
 422 024e 40E0      		ldi r20,lo8(0)
 423               	.LM51:
 424 0250 F0E0      		ldi r31,lo8(fat)
 425 0252 EF2E      		mov r14,r31
 426 0254 F0E0      		ldi r31,hi8(fat)
 427 0256 FF2E      		mov r15,r31
 428 0258 E60E      		add r14,r22
 429 025a F71E      		adc r15,r23
 430               	.LVL31:
 431               	.L25:
 432 025c F701      		movw r30,r14
 433 025e E40F      		add r30,r20
 434 0260 F11D      		adc r31,__zero_reg__
 435 0262 908C      		ldd r9,Z+24
 436 0264 F92D      		mov r31,r9
 437 0266 F032      		cpi r31,lo8(32)
 438 0268 01F0      		breq .L32
 439               	.L21:
 440               	.LM52:
 441 026a F501      		movw r30,r10
 442 026c EC0D      		add r30,r12
 443 026e F11D      		adc r31,__zero_reg__
 444 0270 8081      		ld r24,Z
 445 0272 8E32      		cpi r24,lo8(46)
 446 0274 01F4      		brne .L23
 447               	.LM53:
 448 0276 4830      		cpi r20,lo8(8)
 449 0278 00F0      		brlo .L20
 450               	.LM54:
 451 027a C394      		inc r12
 452               	.LVL32:
 453 027c 00C0      		rjmp .L22
 454               	.L23:
 455               	.LM55:
 456 027e 90E0      		ldi r25,lo8(0)
 457 0280 4B83      		std Y+3,r20
 458 0282 6983      		std Y+1,r22
 459 0284 7A83      		std Y+2,r23
 460 0286 0E94 0000 		call toupper
 461               	.LVL33:
 462 028a 292D      		mov r18,r9
 463 028c 30E0      		ldi r19,lo8(0)
 464 028e 4B81      		ldd r20,Y+3
 465               	.LVL34:
 466 0290 6981      		ldd r22,Y+1
 467 0292 7A81      		ldd r23,Y+2
 468 0294 2817      		cp r18,r24
 469 0296 3907      		cpc r19,r25
 470 0298 01F4      		brne .L24
 471               	.LM56:
 472 029a C394      		inc r12
 473               	.LVL35:
 474               	.L32:
 475 029c 4F5F      		subi r20,lo8(-(1))
 476               	.LVL36:
 477               	.L22:
 478               	.LM57:
 479 029e 4B30      		cpi r20,lo8(11)
 480 02a0 00F0      		brlo .L25
 481               	.L24:
 482               	.LM58:
 483 02a2 4B30      		cpi r20,lo8(11)
 484 02a4 01F4      		brne .L20
 485               	.LM59:
 486 02a6 CB01      		movw r24,r22
 487 02a8 E5E0      		ldi r30,5
 488 02aa 9695      	1:	lsr r25
 489 02ac 8795      		ror r24
 490 02ae EA95      		dec r30
 491 02b0 01F4      		brne 1b
 492 02b2 8093 0000 		sts file+16,r24
 493               	.LM60:
 494 02b6 CB01      		movw r24,r22
 495 02b8 0E94 0000 		call fat_loadRowOfSector
 496               	.LVL37:
 497               	.LM61:
 498 02bc 8091 0000 		lds r24,file+6
 499 02c0 9091 0000 		lds r25,file+6+1
 500 02c4 A091 0000 		lds r26,file+6+2
 501 02c8 B091 0000 		lds r27,file+6+3
 502 02cc 8093 0000 		sts file+21,r24
 503 02d0 9093 0000 		sts file+21+1,r25
 504 02d4 A093 0000 		sts file+21+2,r26
 505 02d8 B093 0000 		sts file+21+3,r27
 506               	.LM62:
 507 02dc 81E0      		ldi r24,lo8(1)
 508 02de 00C0      		rjmp .L18
 509               	.LVL38:
 510               	.L20:
 511               	.LM63:
 512 02e0 605E      		subi r22,lo8(-(32))
 513 02e2 7F4F      		sbci r23,hi8(-(32))
 514               	.LVL39:
 515 02e4 005E      		subi r16,lo8(-(32))
 516 02e6 1F4F      		sbci r17,hi8(-(32))
 517 02e8 82E0      		ldi r24,hi8(512)
 518 02ea 6030      		cpi r22,lo8(512)
 519 02ec 7807      		cpc r23,r24
 520 02ee 01F0      		breq .+2
 521 02f0 00C0      		rjmp .L26
 522               	.LM64:
 523 02f2 D394      		inc r13
 524               	.LVL40:
 525 02f4 8091 0000 		lds r24,fat+21
 526 02f8 D816      		cp r13,r24
 527 02fa 00F4      		brsh .+2
 528 02fc 00C0      		rjmp .L27
 529               	.L28:
 530               	.LM65:
 531 02fe 80E0      		ldi r24,lo8(0)
 532               	.LVL41:
 533               	.L18:
 534               	/* epilogue start */
 535               	.LM66:
 536 0300 0F90      		pop __tmp_reg__
 537 0302 0F90      		pop __tmp_reg__
 538 0304 0F90      		pop __tmp_reg__
 539 0306 CF91      		pop r28
 540 0308 DF91      		pop r29
 541 030a 1F91      		pop r17
 542 030c 0F91      		pop r16
 543 030e FF90      		pop r15
 544 0310 EF90      		pop r14
 545 0312 DF90      		pop r13
 546               	.LVL42:
 547 0314 CF90      		pop r12
 548 0316 BF90      		pop r11
 549 0318 AF90      		pop r10
 550               	.LVL43:
 551 031a 9F90      		pop r9
 552 031c 7F90      		pop r7
 553 031e 6F90      		pop r6
 554 0320 5F90      		pop r5
 555 0322 4F90      		pop r4
 556               	.LVL44:
 557 0324 0895      		ret
 558               	.LFE5:
 560               	.global	fat_makeSfnDataEntry
 562               	fat_makeSfnDataEntry:
 563               	.LFB8:
 564               	.LM67:
 565               	.LVL45:
 566 0326 3F92      		push r3
 567 0328 4F92      		push r4
 568 032a 5F92      		push r5
 569 032c 6F92      		push r6
 570 032e 7F92      		push r7
 571 0330 8F92      		push r8
 572 0332 9F92      		push r9
 573 0334 AF92      		push r10
 574 0336 BF92      		push r11
 575 0338 CF92      		push r12
 576 033a DF92      		push r13
 577 033c EF92      		push r14
 578 033e FF92      		push r15
 579 0340 0F93      		push r16
 580 0342 1F93      		push r17
 581 0344 DF93      		push r29
 582 0346 CF93      		push r28
 583 0348 00D0      		rcall .
 584 034a 0F92      		push __tmp_reg__
 585 034c CDB7      		in r28,__SP_L__
 586 034e DEB7      		in r29,__SP_H__
 587               	/* prologue: function */
 588               	/* frame size = 3 */
 589               	/* stack size = 20 */
 590               	.L__stack_usage = 20
 591 0350 5C01      		movw r10,r24
 592 0352 362E      		mov r3,r22
 593 0354 2901      		movw r4,r18
 594 0356 3A01      		movw r6,r20
 595 0358 6701      		movw r12,r14
 596 035a 7801      		movw r14,r16
 597               	.LM68:
 598 035c 81E0      		ldi r24,lo8(1)
 599               	.LVL46:
 600 035e 8093 0000 		sts fat+4,r24
 601               	.LM69:
 602 0362 8091 0000 		lds r24,file+16
 603 0366 482F      		mov r20,r24
 604 0368 50E0      		ldi r21,lo8(0)
 605               	.LVL47:
 606               	.LM70:
 607 036a B5E0      		ldi r27,5
 608 036c 440F      	1:	lsl r20
 609 036e 551F      		rol r21
 610 0370 BA95      		dec r27
 611 0372 01F4      		brne 1b
 612               	.LVL48:
 613               	.LM71:
 614 0374 4050      		subi r20,lo8(-(fat+24))
 615 0376 5040      		sbci r21,hi8(-(fat+24))
 616               	.LVL49:
 617 0378 FA01      		movw r30,r20
 618               	.LM72:
 619 037a 84E1      		ldi r24,lo8(20)
 620               	.LVL50:
 621               	.L34:
 622               	.LM73:
 623 037c 1192      		st Z+,__zero_reg__
 624               	.LVL51:
 625               	.LM74:
 626               	.LVL52:
 627 037e 8150      		subi r24,1
 628 0380 00F4      		brcc .L34
 629               	.LM75:
 630 0382 8A01      		movw r16,r20
 631               	.LM76:
 632 0384 9924      		clr r9
 633 0386 20E0      		ldi r18,lo8(0)
 634               	.LM77:
 635 0388 A0E2      		ldi r26,lo8(32)
 636 038a 8A2E      		mov r8,r26
 637               	.LVL53:
 638               	.L39:
 639 038c F801      		movw r30,r16
 640 038e 8082      		st Z,r8
 641               	.LM78:
 642 0390 2830      		cpi r18,lo8(8)
 643 0392 00F4      		brsh .L35
 644               	.LM79:
 645 0394 F501      		movw r30,r10
 646 0396 E90D      		add r30,r9
 647 0398 F11D      		adc r31,__zero_reg__
 648 039a 8081      		ld r24,Z
 649 039c 8E32      		cpi r24,lo8(46)
 650 039e 01F0      		breq .L38
 651               	.LM80:
 652 03a0 90E0      		ldi r25,lo8(0)
 653 03a2 2983      		std Y+1,r18
 654 03a4 4A83      		std Y+2,r20
 655 03a6 5B83      		std Y+3,r21
 656 03a8 0E94 0000 		call toupper
 657               	.LVL54:
 658 03ac F801      		movw r30,r16
 659 03ae 8083      		st Z,r24
 660               	.LM81:
 661 03b0 9394      		inc r9
 662               	.LVL55:
 663 03b2 2981      		ldd r18,Y+1
 664 03b4 4A81      		ldd r20,Y+2
 665 03b6 5B81      		ldd r21,Y+3
 666 03b8 00C0      		rjmp .L38
 667               	.LVL56:
 668               	.L35:
 669               	.LM82:
 670 03ba 2830      		cpi r18,lo8(8)
 671 03bc 01F4      		brne .L37
 672               	.LM83:
 673 03be 9394      		inc r9
 674               	.LVL57:
 675               	.L37:
 676               	.LM84:
 677 03c0 F501      		movw r30,r10
 678 03c2 E90D      		add r30,r9
 679 03c4 F11D      		adc r31,__zero_reg__
 680 03c6 8081      		ld r24,Z
 681 03c8 8823      		tst r24
 682 03ca 01F0      		breq .L38
 683               	.LM85:
 684 03cc 90E0      		ldi r25,lo8(0)
 685 03ce 2983      		std Y+1,r18
 686 03d0 4A83      		std Y+2,r20
 687 03d2 5B83      		std Y+3,r21
 688 03d4 0E94 0000 		call toupper
 689               	.LVL58:
 690 03d8 F801      		movw r30,r16
 691 03da 8083      		st Z,r24
 692               	.LM86:
 693 03dc 9394      		inc r9
 694               	.LVL59:
 695 03de 5B81      		ldd r21,Y+3
 696 03e0 4A81      		ldd r20,Y+2
 697 03e2 2981      		ldd r18,Y+1
 698               	.L38:
 699               	.LM87:
 700 03e4 0F5F      		subi r16,lo8(-(1))
 701 03e6 1F4F      		sbci r17,hi8(-(1))
 702               	.LVL60:
 703               	.LM88:
 704 03e8 2F5F      		subi r18,lo8(-(1))
 705               	.LVL61:
 706 03ea 2B30      		cpi r18,lo8(11)
 707 03ec 01F4      		brne .L39
 708               	.LM89:
 709 03ee FA01      		movw r30,r20
 710 03f0 3386      		std Z+11,r3
 711               	.LVL62:
 712               	.LM90:
 713 03f2 758A      		std Z+21,r7
 714 03f4 648A      		std Z+20,r6
 715               	.LM91:
 716 03f6 538E      		std Z+27,r5
 717 03f8 428E      		std Z+26,r4
 718               	.LM92:
 719 03fa C48E      		std Z+28,r12
 720 03fc D58E      		std Z+29,r13
 721 03fe E68E      		std Z+30,r14
 722 0400 F78E      		std Z+31,r15
 723               	/* epilogue start */
 724               	.LM93:
 725 0402 0F90      		pop __tmp_reg__
 726 0404 0F90      		pop __tmp_reg__
 727 0406 0F90      		pop __tmp_reg__
 728 0408 CF91      		pop r28
 729 040a DF91      		pop r29
 730 040c 1F91      		pop r17
 731 040e 0F91      		pop r16
 732 0410 FF90      		pop r15
 733 0412 EF90      		pop r14
 734 0414 DF90      		pop r13
 735 0416 CF90      		pop r12
 736               	.LVL63:
 737 0418 BF90      		pop r11
 738 041a AF90      		pop r10
 739               	.LVL64:
 740 041c 9F90      		pop r9
 741               	.LVL65:
 742 041e 8F90      		pop r8
 743 0420 7F90      		pop r7
 744 0422 6F90      		pop r6
 745 0424 5F90      		pop r5
 746 0426 4F90      		pop r4
 747               	.LVL66:
 748 0428 3F90      		pop r3
 749               	.LVL67:
 750 042a 0895      		ret
 751               	.LFE8:
 753               	.global	fat_getNextCluster
 755               	fat_getNextCluster:
 756               	.LFB12:
 757               	.LM94:
 758               	.LVL68:
 759 042c EF92      		push r14
 760 042e FF92      		push r15
 761 0430 0F93      		push r16
 762 0432 1F93      		push r17
 763               	/* prologue: function */
 764               	/* frame size = 0 */
 765               	/* stack size = 4 */
 766               	.L__stack_usage = 4
 767               	.LM95:
 768 0434 2091 0000 		lds r18,fat+22
 769 0438 2031      		cpi r18,lo8(16)
 770 043a 01F4      		brne .L43
 771               	.LM96:
 772 043c 7B01      		movw r14,r22
 773 043e 8C01      		movw r16,r24
 774 0440 EE0C      		lsl r14
 775 0442 FF1C      		rol r15
 776 0444 001F      		rol r16
 777 0446 111F      		rol r17
 778               	.LVL69:
 779               	.LM97:
 780 0448 C801      		movw r24,r16
 781 044a B701      		movw r22,r14
 782 044c 29E0      		ldi r18,9
 783 044e 9695      	1:	lsr r25
 784 0450 8795      		ror r24
 785 0452 7795      		ror r23
 786 0454 6795      		ror r22
 787 0456 2A95      		dec r18
 788 0458 01F4      		brne 1b
 789 045a 2091 0000 		lds r18,fat+17
 790 045e 3091 0000 		lds r19,fat+17+1
 791 0462 4091 0000 		lds r20,fat+17+2
 792 0466 5091 0000 		lds r21,fat+17+3
 793 046a 620F      		add r22,r18
 794 046c 731F      		adc r23,r19
 795 046e 841F      		adc r24,r20
 796 0470 951F      		adc r25,r21
 797               	.LM98:
 798 0472 0E94 0000 		call fat_loadSector
 799               	.LVL70:
 800               	.LM99:
 801 0476 F701      		movw r30,r14
 802 0478 F170      		andi r31,hi8(511)
 803               	.LM100:
 804 047a E050      		subi r30,lo8(-(fat+24))
 805 047c F040      		sbci r31,hi8(-(fat+24))
 806 047e 2081      		ld r18,Z
 807 0480 3181      		ldd r19,Z+1
 808 0482 40E0      		ldi r20,lo8(0)
 809 0484 50E0      		ldi r21,hi8(0)
 810 0486 00C0      		rjmp .L44
 811               	.LVL71:
 812               	.L43:
 813               	.LM101:
 814 0488 7B01      		movw r14,r22
 815 048a 8C01      		movw r16,r24
 816 048c 82E0      		ldi r24,2
 817 048e EE0C      	1:	lsl r14
 818 0490 FF1C      		rol r15
 819 0492 001F      		rol r16
 820 0494 111F      		rol r17
 821 0496 8A95      		dec r24
 822 0498 01F4      		brne 1b
 823               	.LVL72:
 824               	.LM102:
 825 049a C801      		movw r24,r16
 826 049c B701      		movw r22,r14
 827 049e 19E0      		ldi r17,9
 828 04a0 9695      	1:	lsr r25
 829 04a2 8795      		ror r24
 830 04a4 7795      		ror r23
 831 04a6 6795      		ror r22
 832 04a8 1A95      		dec r17
 833 04aa 01F4      		brne 1b
 834 04ac 2091 0000 		lds r18,fat+17
 835 04b0 3091 0000 		lds r19,fat+17+1
 836 04b4 4091 0000 		lds r20,fat+17+2
 837 04b8 5091 0000 		lds r21,fat+17+3
 838 04bc 620F      		add r22,r18
 839 04be 731F      		adc r23,r19
 840 04c0 841F      		adc r24,r20
 841 04c2 951F      		adc r25,r21
 842               	.LM103:
 843 04c4 0E94 0000 		call fat_loadSector
 844               	.LVL73:
 845               	.LM104:
 846 04c8 F701      		movw r30,r14
 847 04ca F170      		andi r31,hi8(511)
 848               	.LM105:
 849 04cc E050      		subi r30,lo8(-(fat+24))
 850 04ce F040      		sbci r31,hi8(-(fat+24))
 851 04d0 2081      		ld r18,Z
 852 04d2 3181      		ldd r19,Z+1
 853 04d4 4281      		ldd r20,Z+2
 854 04d6 5381      		ldd r21,Z+3
 855               	.LVL74:
 856               	.L44:
 857               	.LM106:
 858 04d8 B901      		movw r22,r18
 859 04da CA01      		movw r24,r20
 860               	/* epilogue start */
 861 04dc 1F91      		pop r17
 862 04de 0F91      		pop r16
 863 04e0 FF90      		pop r15
 864 04e2 EF90      		pop r14
 865               	.LVL75:
 866 04e4 0895      		ret
 867               	.LFE12:
 869               	.global	fat_loadFileDataFromDir
 871               	fat_loadFileDataFromDir:
 872               	.LFB6:
 873               	.LM107:
 874               	.LVL76:
 875 04e6 EF92      		push r14
 876 04e8 FF92      		push r15
 877 04ea 0F93      		push r16
 878 04ec 1F93      		push r17
 879 04ee CF93      		push r28
 880 04f0 DF93      		push r29
 881               	/* prologue: function */
 882               	/* frame size = 0 */
 883               	/* stack size = 6 */
 884               	.L__stack_usage = 6
 885 04f2 EC01      		movw r28,r24
 886               	.LM108:
 887 04f4 E090 0000 		lds r14,fat+5
 888 04f8 F090 0000 		lds r15,fat+5+1
 889 04fc 0091 0000 		lds r16,fat+5+2
 890 0500 1091 0000 		lds r17,fat+5+3
 891 0504 E114      		cp r14,__zero_reg__
 892 0506 F104      		cpc r15,__zero_reg__
 893 0508 0105      		cpc r16,__zero_reg__
 894 050a 1105      		cpc r17,__zero_reg__
 895 050c 01F4      		brne .L57
 896               	.LM109:
 897 050e 8091 0000 		lds r24,fat+22
 898               	.LVL77:
 899 0512 8031      		cpi r24,lo8(16)
 900 0514 01F4      		brne .L47
 901               	.LM110:
 902 0516 10E0      		ldi r17,lo8(0)
 903               	.L49:
 904               	.LVL78:
 905               	.LM111:
 906 0518 6091 0000 		lds r22,fat+9
 907 051c 7091 0000 		lds r23,fat+9+1
 908 0520 8091 0000 		lds r24,fat+9+2
 909 0524 9091 0000 		lds r25,fat+9+3
 910 0528 610F      		add r22,r17
 911 052a 711D      		adc r23,__zero_reg__
 912 052c 811D      		adc r24,__zero_reg__
 913 052e 911D      		adc r25,__zero_reg__
 914 0530 AE01      		movw r20,r28
 915 0532 0E94 0000 		call fat_loadFileDataFromCluster
 916 0536 8130      		cpi r24,lo8(1)
 917 0538 01F0      		breq .L55
 918               	.LM112:
 919 053a 8091 0000 		lds r24,fat+21
 920 053e 180F      		add r17,r24
 921               	.LVL79:
 922               	.LM113:
 923 0540 1032      		cpi r17,lo8(32)
 924 0542 00F0      		brlo .L49
 925 0544 00C0      		rjmp .L58
 926               	.LVL80:
 927               	.L47:
 928               	.LM114:
 929 0546 E090 0000 		lds r14,fat+9
 930 054a F090 0000 		lds r15,fat+9+1
 931 054e 0091 0000 		lds r16,fat+9+2
 932 0552 1091 0000 		lds r17,fat+9+3
 933 0556 00C0      		rjmp .L57
 934               	.LVL81:
 935               	.L53:
 936               	.LM115:
 937 0558 C801      		movw r24,r16
 938 055a B701      		movw r22,r14
 939 055c 0E94 0000 		call fat_clustToSec
 940 0560 AE01      		movw r20,r28
 941 0562 0E94 0000 		call fat_loadFileDataFromCluster
 942 0566 8130      		cpi r24,lo8(1)
 943 0568 01F0      		breq .L55
 944               	.LM116:
 945 056a C801      		movw r24,r16
 946 056c B701      		movw r22,r14
 947 056e 0E94 0000 		call fat_getNextCluster
 948 0572 7B01      		movw r14,r22
 949 0574 8C01      		movw r16,r24
 950               	.LVL82:
 951               	.L57:
 952               	.LM117:
 953 0576 88EF      		ldi r24,lo8(268435448)
 954 0578 E816      		cp r14,r24
 955 057a 8FEF      		ldi r24,hi8(268435448)
 956 057c F806      		cpc r15,r24
 957 057e 8FEF      		ldi r24,hlo8(268435448)
 958 0580 0807      		cpc r16,r24
 959 0582 8FE0      		ldi r24,hhi8(268435448)
 960 0584 1807      		cpc r17,r24
 961 0586 00F0      		brlo .L51
 962               	.LM118:
 963 0588 8091 0000 		lds r24,fat+22
 964 058c 8032      		cpi r24,lo8(32)
 965 058e 01F4      		brne .L52
 966 0590 00C0      		rjmp .L58
 967               	.L51:
 968               	.LM119:
 969 0592 88EF      		ldi r24,lo8(65528)
 970 0594 E816      		cp r14,r24
 971 0596 8FEF      		ldi r24,hi8(65528)
 972 0598 F806      		cpc r15,r24
 973 059a 80E0      		ldi r24,hlo8(65528)
 974 059c 0807      		cpc r16,r24
 975 059e 80E0      		ldi r24,hhi8(65528)
 976 05a0 1807      		cpc r17,r24
 977 05a2 00F0      		brlo .L53
 978               	.L52:
 979               	.LM120:
 980 05a4 8091 0000 		lds r24,fat+22
 981 05a8 8031      		cpi r24,lo8(16)
 982 05aa 01F4      		brne .L53
 983               	.LVL83:
 984               	.L58:
 985               	.LM121:
 986 05ac 80E0      		ldi r24,lo8(0)
 987 05ae 00C0      		rjmp .L48
 988               	.L55:
 989               	.LM122:
 990 05b0 81E0      		ldi r24,lo8(1)
 991               	.L48:
 992               	/* epilogue start */
 993               	.LM123:
 994 05b2 DF91      		pop r29
 995 05b4 CF91      		pop r28
 996               	.LVL84:
 997 05b6 1F91      		pop r17
 998 05b8 0F91      		pop r16
 999 05ba FF90      		pop r15
 1000 05bc EF90      		pop r14
 1001 05be 0895      		ret
 1002               	.LFE6:
 1004               	.global	fat_getFatChainClustersInRow
 1006               	fat_getFatChainClustersInRow:
 1007               	.LFB13:
 1008               	.LM124:
 1009               	.LVL85:
 1010 05c0 6F92      		push r6
 1011 05c2 7F92      		push r7
 1012 05c4 8F92      		push r8
 1013 05c6 9F92      		push r9
 1014 05c8 AF92      		push r10
 1015 05ca BF92      		push r11
 1016 05cc CF92      		push r12
 1017 05ce DF92      		push r13
 1018 05d0 EF92      		push r14
 1019 05d2 FF92      		push r15
 1020 05d4 0F93      		push r16
 1021 05d6 1F93      		push r17
 1022 05d8 CF93      		push r28
 1023 05da DF93      		push r29
 1024               	/* prologue: function */
 1025               	/* frame size = 0 */
 1026               	/* stack size = 14 */
 1027               	.L__stack_usage = 14
 1028 05dc 5B01      		movw r10,r22
 1029 05de 6C01      		movw r12,r24
 1030               	.LVL86:
 1031               	.LM125:
 1032 05e0 0E94 0000 		call fat_clustToSec
 1033               	.LVL87:
 1034 05e4 6093 0000 		sts chain,r22
 1035 05e8 7093 0000 		sts chain+1,r23
 1036 05ec 8093 0000 		sts chain+2,r24
 1037 05f0 9093 0000 		sts chain+3,r25
 1038               	.LM126:
 1039 05f4 8091 0000 		lds r24,fat+21
 1040 05f8 8093 0000 		sts chain+4,r24
 1041 05fc 1092 0000 		sts chain+5,__zero_reg__
 1042 0600 8601      		movw r16,r12
 1043 0602 7501      		movw r14,r10
 1044               	.LM127:
 1045 0604 C0E0      		ldi r28,lo8(0)
 1046 0606 D0E0      		ldi r29,hi8(0)
 1047 0608 00C0      		rjmp .L61
 1048               	.LVL88:
 1049               	.L64:
 1050               	.LM128:
 1051 060a 8401      		movw r16,r8
 1052 060c 7301      		movw r14,r6
 1053               	.LVL89:
 1054               	.L61:
 1055               	.LM129:
 1056 060e 3701      		movw r6,r14
 1057 0610 4801      		movw r8,r16
 1058 0612 0894      		sec
 1059 0614 611C      		adc r6,__zero_reg__
 1060 0616 711C      		adc r7,__zero_reg__
 1061 0618 811C      		adc r8,__zero_reg__
 1062 061a 911C      		adc r9,__zero_reg__
 1063               	.LM130:
 1064 061c C801      		movw r24,r16
 1065 061e B701      		movw r22,r14
 1066 0620 0E94 0000 		call fat_getNextCluster
 1067 0624 6616      		cp r6,r22
 1068 0626 7706      		cpc r7,r23
 1069 0628 8806      		cpc r8,r24
 1070 062a 9906      		cpc r9,r25
 1071 062c 01F4      		brne .L60
 1072               	.LM131:
 1073 062e 2091 0000 		lds r18,fat+21
 1074 0632 8091 0000 		lds r24,chain+4
 1075 0636 9091 0000 		lds r25,chain+4+1
 1076 063a 820F      		add r24,r18
 1077 063c 911D      		adc r25,__zero_reg__
 1078 063e 9093 0000 		sts chain+4+1,r25
 1079 0642 8093 0000 		sts chain+4,r24
 1080               	.LM132:
 1081 0646 2196      		adiw r28,1
 1082               	.LVL90:
 1083               	.LM133:
 1084 0648 81E0      		ldi r24,hi8(256)
 1085 064a C030      		cpi r28,lo8(256)
 1086 064c D807      		cpc r29,r24
 1087 064e 01F4      		brne .L64
 1088 0650 00C0      		rjmp .L66
 1089               	.LVL91:
 1090               	.L60:
 1091               	.LM134:
 1092 0652 E092 0000 		sts chain+6,r14
 1093 0656 F092 0000 		sts chain+6+1,r15
 1094 065a 0093 0000 		sts chain+6+2,r16
 1095 065e 1093 0000 		sts chain+6+3,r17
 1096               	.LM135:
 1097 0662 00C0      		rjmp .L59
 1098               	.LVL92:
 1099               	.L66:
 1100               	.LM136:
 1101 0664 D601      		movw r26,r12
 1102 0666 C501      		movw r24,r10
 1103 0668 8050      		subi r24,lo8(-(256))
 1104 066a 9F4F      		sbci r25,hi8(-(256))
 1105 066c AF4F      		sbci r26,hlo8(-(256))
 1106 066e BF4F      		sbci r27,hhi8(-(256))
 1107 0670 E0E0      		ldi r30,lo8(chain+4)
 1108 0672 F0E0      		ldi r31,hi8(chain+4)
 1109 0674 8283      		std Z+2,r24
 1110 0676 9383      		std Z+3,r25
 1111 0678 A483      		std Z+4,r26
 1112 067a B583      		std Z+5,r27
 1113               	.LVL93:
 1114               	.L59:
 1115               	/* epilogue start */
 1116               	.LM137:
 1117 067c DF91      		pop r29
 1118 067e CF91      		pop r28
 1119 0680 1F91      		pop r17
 1120 0682 0F91      		pop r16
 1121 0684 FF90      		pop r15
 1122 0686 EF90      		pop r14
 1123 0688 DF90      		pop r13
 1124 068a CF90      		pop r12
 1125 068c BF90      		pop r11
 1126 068e AF90      		pop r10
 1127               	.LVL94:
 1128 0690 9F90      		pop r9
 1129 0692 8F90      		pop r8
 1130 0694 7F90      		pop r7
 1131 0696 6F90      		pop r6
 1132 0698 0895      		ret
 1133               	.LFE13:
 1135               	.global	fat_getFreeClustersInRow
 1137               	fat_getFreeClustersInRow:
 1138               	.LFB14:
 1139               	.LM138:
 1140               	.LVL95:
 1141 069a AF92      		push r10
 1142 069c BF92      		push r11
 1143 069e CF92      		push r12
 1144 06a0 DF92      		push r13
 1145 06a2 EF92      		push r14
 1146 06a4 FF92      		push r15
 1147 06a6 0F93      		push r16
 1148 06a8 1F93      		push r17
 1149               	/* prologue: function */
 1150               	/* frame size = 0 */
 1151               	/* stack size = 8 */
 1152               	.L__stack_usage = 8
 1153 06aa 7B01      		movw r14,r22
 1154 06ac 8C01      		movw r16,r24
 1155               	.LVL96:
 1156               	.LM139:
 1157 06ae 00C0      		rjmp .L68
 1158               	.LVL97:
 1159               	.L69:
 1160               	.LM140:
 1161 06b0 8601      		movw r16,r12
 1162 06b2 7501      		movw r14,r10
 1163               	.LVL98:
 1164               	.L68:
 1165               	.LM141:
 1166 06b4 C801      		movw r24,r16
 1167 06b6 B701      		movw r22,r14
 1168 06b8 0E94 0000 		call fat_getNextCluster
 1169 06bc 5701      		movw r10,r14
 1170 06be 6801      		movw r12,r16
 1171 06c0 0894      		sec
 1172 06c2 A11C      		adc r10,__zero_reg__
 1173 06c4 B11C      		adc r11,__zero_reg__
 1174 06c6 C11C      		adc r12,__zero_reg__
 1175 06c8 D11C      		adc r13,__zero_reg__
 1176 06ca 6115      		cp r22,__zero_reg__
 1177 06cc 7105      		cpc r23,__zero_reg__
 1178 06ce 8105      		cpc r24,__zero_reg__
 1179 06d0 9105      		cpc r25,__zero_reg__
 1180 06d2 01F4      		brne .L69
 1181               	.LM142:
 1182 06d4 C801      		movw r24,r16
 1183 06d6 B701      		movw r22,r14
 1184 06d8 0E94 0000 		call fat_clustToSec
 1185 06dc 6093 0000 		sts chain,r22
 1186 06e0 7093 0000 		sts chain+1,r23
 1187 06e4 8093 0000 		sts chain+2,r24
 1188 06e8 9093 0000 		sts chain+3,r25
 1189               	.LM143:
 1190 06ec 8091 0000 		lds r24,fat+21
 1191 06f0 8093 0000 		sts chain+4,r24
 1192 06f4 1092 0000 		sts chain+5,__zero_reg__
 1193               	.LM144:
 1194 06f8 80E0      		ldi r24,lo8(256)
 1195 06fa 91E0      		ldi r25,hi8(256)
 1196 06fc A0E0      		ldi r26,hlo8(256)
 1197 06fe B0E0      		ldi r27,hhi8(256)
 1198 0700 E80E      		add r14,r24
 1199 0702 F91E      		adc r15,r25
 1200 0704 0A1F      		adc r16,r26
 1201 0706 1B1F      		adc r17,r27
 1202               	.LVL99:
 1203               	.L71:
 1204               	.LM145:
 1205 0708 C601      		movw r24,r12
 1206 070a B501      		movw r22,r10
 1207 070c 0E94 0000 		call fat_getNextCluster
 1208 0710 6115      		cp r22,__zero_reg__
 1209 0712 7105      		cpc r23,__zero_reg__
 1210 0714 8105      		cpc r24,__zero_reg__
 1211 0716 9105      		cpc r25,__zero_reg__
 1212 0718 01F4      		brne .L67
 1213               	.LM146:
 1214 071a 2091 0000 		lds r18,fat+21
 1215 071e 8091 0000 		lds r24,chain+4
 1216 0722 9091 0000 		lds r25,chain+4+1
 1217 0726 820F      		add r24,r18
 1218 0728 911D      		adc r25,__zero_reg__
 1219 072a 9093 0000 		sts chain+4+1,r25
 1220 072e 8093 0000 		sts chain+4,r24
 1221 0732 0894      		sec
 1222 0734 A11C      		adc r10,__zero_reg__
 1223 0736 B11C      		adc r11,__zero_reg__
 1224 0738 C11C      		adc r12,__zero_reg__
 1225 073a D11C      		adc r13,__zero_reg__
 1226               	.LM147:
 1227 073c AE14      		cp r10,r14
 1228 073e BF04      		cpc r11,r15
 1229 0740 C006      		cpc r12,r16
 1230 0742 D106      		cpc r13,r17
 1231 0744 01F4      		brne .L71
 1232               	.L67:
 1233               	/* epilogue start */
 1234               	.LM148:
 1235 0746 1F91      		pop r17
 1236 0748 0F91      		pop r16
 1237 074a FF90      		pop r15
 1238 074c EF90      		pop r14
 1239               	.LVL100:
 1240 074e DF90      		pop r13
 1241 0750 CF90      		pop r12
 1242 0752 BF90      		pop r11
 1243 0754 AF90      		pop r10
 1244 0756 0895      		ret
 1245               	.LFE14:
 1247               	.global	fat_setCluster
 1249               	fat_setCluster:
 1250               	.LFB16:
 1251               	.LM149:
 1252               	.LVL101:
 1253 0758 AF92      		push r10
 1254 075a BF92      		push r11
 1255 075c CF92      		push r12
 1256 075e DF92      		push r13
 1257 0760 EF92      		push r14
 1258 0762 FF92      		push r15
 1259 0764 0F93      		push r16
 1260 0766 1F93      		push r17
 1261               	/* prologue: function */
 1262               	/* frame size = 0 */
 1263               	/* stack size = 8 */
 1264               	.L__stack_usage = 8
 1265 0768 5901      		movw r10,r18
 1266 076a 6A01      		movw r12,r20
 1267               	.LM150:
 1268 076c 2091 0000 		lds r18,fat+22
 1269               	.LVL102:
 1270 0770 2031      		cpi r18,lo8(16)
 1271 0772 01F4      		brne .L74
 1272               	.LM151:
 1273 0774 7B01      		movw r14,r22
 1274 0776 8C01      		movw r16,r24
 1275 0778 EE0C      		lsl r14
 1276 077a FF1C      		rol r15
 1277 077c 001F      		rol r16
 1278 077e 111F      		rol r17
 1279               	.LVL103:
 1280               	.LM152:
 1281 0780 C801      		movw r24,r16
 1282 0782 B701      		movw r22,r14
 1283 0784 E9E0      		ldi r30,9
 1284 0786 9695      	1:	lsr r25
 1285 0788 8795      		ror r24
 1286 078a 7795      		ror r23
 1287 078c 6795      		ror r22
 1288 078e EA95      		dec r30
 1289 0790 01F4      		brne 1b
 1290 0792 2091 0000 		lds r18,fat+17
 1291 0796 3091 0000 		lds r19,fat+17+1
 1292 079a 4091 0000 		lds r20,fat+17+2
 1293 079e 5091 0000 		lds r21,fat+17+3
 1294 07a2 620F      		add r22,r18
 1295 07a4 731F      		adc r23,r19
 1296 07a6 841F      		adc r24,r20
 1297 07a8 951F      		adc r25,r21
 1298               	.LM153:
 1299 07aa 0E94 0000 		call fat_loadSector
 1300               	.LVL104:
 1301               	.LM154:
 1302 07ae F701      		movw r30,r14
 1303 07b0 F170      		andi r31,hi8(511)
 1304               	.LM155:
 1305 07b2 E050      		subi r30,lo8(-(fat+24))
 1306 07b4 F040      		sbci r31,hi8(-(fat+24))
 1307 07b6 B182      		std Z+1,r11
 1308 07b8 A082      		st Z,r10
 1309 07ba 00C0      		rjmp .L75
 1310               	.LVL105:
 1311               	.L74:
 1312               	.LM156:
 1313 07bc 7B01      		movw r14,r22
 1314 07be 8C01      		movw r16,r24
 1315 07c0 52E0      		ldi r21,2
 1316 07c2 EE0C      	1:	lsl r14
 1317 07c4 FF1C      		rol r15
 1318 07c6 001F      		rol r16
 1319 07c8 111F      		rol r17
 1320 07ca 5A95      		dec r21
 1321 07cc 01F4      		brne 1b
 1322               	.LVL106:
 1323               	.LM157:
 1324 07ce C801      		movw r24,r16
 1325 07d0 B701      		movw r22,r14
 1326 07d2 49E0      		ldi r20,9
 1327 07d4 9695      	1:	lsr r25
 1328 07d6 8795      		ror r24
 1329 07d8 7795      		ror r23
 1330 07da 6795      		ror r22
 1331 07dc 4A95      		dec r20
 1332 07de 01F4      		brne 1b
 1333 07e0 2091 0000 		lds r18,fat+17
 1334 07e4 3091 0000 		lds r19,fat+17+1
 1335 07e8 4091 0000 		lds r20,fat+17+2
 1336 07ec 5091 0000 		lds r21,fat+17+3
 1337 07f0 620F      		add r22,r18
 1338 07f2 731F      		adc r23,r19
 1339 07f4 841F      		adc r24,r20
 1340 07f6 951F      		adc r25,r21
 1341               	.LM158:
 1342 07f8 0E94 0000 		call fat_loadSector
 1343               	.LVL107:
 1344               	.LM159:
 1345 07fc F701      		movw r30,r14
 1346 07fe F170      		andi r31,hi8(511)
 1347               	.LM160:
 1348 0800 E050      		subi r30,lo8(-(fat+24))
 1349 0802 F040      		sbci r31,hi8(-(fat+24))
 1350 0804 A082      		st Z,r10
 1351 0806 B182      		std Z+1,r11
 1352 0808 C282      		std Z+2,r12
 1353 080a D382      		std Z+3,r13
 1354               	.LVL108:
 1355               	.L75:
 1356               	.LM161:
 1357 080c 81E0      		ldi r24,lo8(1)
 1358 080e 8093 0000 		sts fat+4,r24
 1359               	/* epilogue start */
 1360               	.LM162:
 1361 0812 1F91      		pop r17
 1362 0814 0F91      		pop r16
 1363 0816 FF90      		pop r15
 1364 0818 EF90      		pop r14
 1365               	.LVL109:
 1366 081a DF90      		pop r13
 1367 081c CF90      		pop r12
 1368 081e BF90      		pop r11
 1369 0820 AF90      		pop r10
 1370               	.LVL110:
 1371 0822 0895      		ret
 1372               	.LFE16:
 1374               	.global	fat_setClusterChain
 1376               	fat_setClusterChain:
 1377               	.LFB15:
 1378               	.LM163:
 1379               	.LVL111:
 1380 0824 6F92      		push r6
 1381 0826 7F92      		push r7
 1382 0828 8F92      		push r8
 1383 082a 9F92      		push r9
 1384 082c AF92      		push r10
 1385 082e BF92      		push r11
 1386 0830 CF92      		push r12
 1387 0832 DF92      		push r13
 1388 0834 EF92      		push r14
 1389 0836 FF92      		push r15
 1390 0838 0F93      		push r16
 1391 083a 1F93      		push r17
 1392               	/* prologue: function */
 1393               	/* frame size = 0 */
 1394               	/* stack size = 12 */
 1395               	.L__stack_usage = 12
 1396 083c 5B01      		movw r10,r22
 1397 083e 6C01      		movw r12,r24
 1398 0840 3901      		movw r6,r18
 1399 0842 4A01      		movw r8,r20
 1400               	.LM164:
 1401 0844 6091 0000 		lds r22,chain+6
 1402 0848 7091 0000 		lds r23,chain+6+1
 1403 084c 8091 0000 		lds r24,chain+6+2
 1404 0850 9091 0000 		lds r25,chain+6+3
 1405               	.LVL112:
 1406 0854 A601      		movw r20,r12
 1407 0856 9501      		movw r18,r10
 1408               	.LVL113:
 1409 0858 0E94 0000 		call fat_setCluster
 1410               	.LM165:
 1411 085c 00C0      		rjmp .L77
 1412               	.L78:
 1413               	.LM166:
 1414 085e 8601      		movw r16,r12
 1415 0860 7501      		movw r14,r10
 1416 0862 0894      		sec
 1417 0864 E11C      		adc r14,__zero_reg__
 1418 0866 F11C      		adc r15,__zero_reg__
 1419 0868 011D      		adc r16,__zero_reg__
 1420 086a 111D      		adc r17,__zero_reg__
 1421               	.LVL114:
 1422               	.LM167:
 1423 086c C601      		movw r24,r12
 1424 086e B501      		movw r22,r10
 1425 0870 A801      		movw r20,r16
 1426 0872 9701      		movw r18,r14
 1427 0874 0E94 0000 		call fat_setCluster
 1428               	.LM168:
 1429 0878 5701      		movw r10,r14
 1430 087a 6801      		movw r12,r16
 1431               	.LVL115:
 1432               	.L77:
 1433               	.LM169:
 1434 087c A614      		cp r10,r6
 1435 087e B704      		cpc r11,r7
 1436 0880 C804      		cpc r12,r8
 1437 0882 D904      		cpc r13,r9
 1438 0884 01F4      		brne .L78
 1439               	.LM170:
 1440 0886 C601      		movw r24,r12
 1441 0888 B501      		movw r22,r10
 1442 088a 2FEF      		ldi r18,lo8(268435455)
 1443 088c 3FEF      		ldi r19,hi8(268435455)
 1444 088e 4FEF      		ldi r20,hlo8(268435455)
 1445 0890 5FE0      		ldi r21,hhi8(268435455)
 1446 0892 0E94 0000 		call fat_setCluster
 1447               	.LM171:
 1448 0896 A092 0000 		sts chain+6,r10
 1449 089a B092 0000 		sts chain+6+1,r11
 1450 089e C092 0000 		sts chain+6+2,r12
 1451 08a2 D092 0000 		sts chain+6+3,r13
 1452               	.LM172:
 1453 08a6 1092 0000 		sts fat+4,__zero_reg__
 1454               	.LM173:
 1455 08aa 6091 0000 		lds r22,file+6
 1456 08ae 7091 0000 		lds r23,file+6+1
 1457 08b2 8091 0000 		lds r24,file+6+2
 1458 08b6 9091 0000 		lds r25,file+6+3
 1459 08ba 40E0      		ldi r20,lo8(fat+24)
 1460 08bc 50E0      		ldi r21,hi8(fat+24)
 1461 08be 0E94 0000 		call mmc_write_sector
 1462               	/* epilogue start */
 1463               	.LM174:
 1464 08c2 1F91      		pop r17
 1465 08c4 0F91      		pop r16
 1466 08c6 FF90      		pop r15
 1467 08c8 EF90      		pop r14
 1468 08ca DF90      		pop r13
 1469 08cc CF90      		pop r12
 1470 08ce BF90      		pop r11
 1471 08d0 AF90      		pop r10
 1472               	.LVL116:
 1473 08d2 9F90      		pop r9
 1474 08d4 8F90      		pop r8
 1475 08d6 7F90      		pop r7
 1476 08d8 6F90      		pop r6
 1477               	.LVL117:
 1478 08da 0895      		ret
 1479               	.LFE15:
 1481               	.global	fat_makeFileEntry
 1483               	fat_makeFileEntry:
 1484               	.LFB7:
 1485               	.LM175:
 1486               	.LVL118:
 1487 08dc 3F92      		push r3
 1488 08de 4F92      		push r4
 1489 08e0 5F92      		push r5
 1490 08e2 6F92      		push r6
 1491 08e4 7F92      		push r7
 1492 08e6 8F92      		push r8
 1493 08e8 9F92      		push r9
 1494 08ea AF92      		push r10
 1495 08ec BF92      		push r11
 1496 08ee CF92      		push r12
 1497 08f0 DF92      		push r13
 1498 08f2 EF92      		push r14
 1499 08f4 FF92      		push r15
 1500 08f6 0F93      		push r16
 1501 08f8 1F93      		push r17
 1502 08fa DF93      		push r29
 1503 08fc CF93      		push r28
 1504 08fe 0F92      		push __tmp_reg__
 1505 0900 CDB7      		in r28,__SP_L__
 1506 0902 DEB7      		in r29,__SP_H__
 1507               	/* prologue: function */
 1508               	/* frame size = 1 */
 1509               	/* stack size = 18 */
 1510               	.L__stack_usage = 18
 1511 0904 2C01      		movw r4,r24
 1512 0906 362E      		mov r3,r22
 1513               	.LM176:
 1514 0908 8091 0000 		lds r24,fat+5
 1515 090c 9091 0000 		lds r25,fat+5+1
 1516 0910 A091 0000 		lds r26,fat+5+2
 1517 0914 B091 0000 		lds r27,fat+5+3
 1518               	.LVL119:
 1519 0918 0097      		sbiw r24,0
 1520 091a A105      		cpc r26,__zero_reg__
 1521 091c B105      		cpc r27,__zero_reg__
 1522 091e 01F4      		brne .L93
 1523               	.LVL120:
 1524               	.LM177:
 1525 0920 E090 0000 		lds r14,fat+9
 1526 0924 F090 0000 		lds r15,fat+9+1
 1527 0928 0091 0000 		lds r16,fat+9+2
 1528 092c 1091 0000 		lds r17,fat+9+3
 1529 0930 00C0      		rjmp .L80
 1530               	.L93:
 1531               	.LM178:
 1532 0932 7C01      		movw r14,r24
 1533 0934 8D01      		movw r16,r26
 1534               	.L80:
 1535               	.LVL121:
 1536               	.LM179:
 1537 0936 2091 0000 		lds r18,fat+22
 1538 093a 2031      		cpi r18,lo8(16)
 1539 093c 01F4      		brne .L97
 1540               	.LM180:
 1541 093e 0097      		sbiw r24,0
 1542 0940 A105      		cpc r26,__zero_reg__
 1543 0942 B105      		cpc r27,__zero_reg__
 1544 0944 01F4      		brne .L97
 1545               	.LM181:
 1546 0946 20E0      		ldi r18,lo8(0)
 1547               	.L85:
 1548               	.LVL122:
 1549               	.LM182:
 1550 0948 C801      		movw r24,r16
 1551 094a B701      		movw r22,r14
 1552 094c 620F      		add r22,r18
 1553 094e 711D      		adc r23,__zero_reg__
 1554 0950 811D      		adc r24,__zero_reg__
 1555 0952 911D      		adc r25,__zero_reg__
 1556 0954 2983      		std Y+1,r18
 1557 0956 0E94 0000 		call fat_getFreeRowsOfCluster.clone.1
 1558               	.LVL123:
 1559 095a 2981      		ldd r18,Y+1
 1560 095c 8130      		cpi r24,lo8(1)
 1561 095e 01F4      		brne .+2
 1562 0960 00C0      		rjmp .L84
 1563               	.LM183:
 1564 0962 8091 0000 		lds r24,fat+21
 1565 0966 280F      		add r18,r24
 1566               	.LVL124:
 1567               	.LM184:
 1568 0968 2032      		cpi r18,lo8(32)
 1569 096a 00F0      		brlo .L85
 1570 096c 00C0      		rjmp .L84
 1571               	.LVL125:
 1572               	.L89:
 1573               	.LM185:
 1574 096e 7B01      		movw r14,r22
 1575 0970 8C01      		movw r16,r24
 1576               	.LVL126:
 1577               	.L97:
 1578               	.LBB12:
 1579               	.LBB13:
 1580               	.LM186:
 1581 0972 C801      		movw r24,r16
 1582 0974 B701      		movw r22,r14
 1583 0976 0E94 0000 		call fat_clustToSec
 1584 097a 0E94 0000 		call fat_getFreeRowsOfCluster.clone.1
 1585 097e 8130      		cpi r24,lo8(1)
 1586 0980 01F4      		brne .+2
 1587 0982 00C0      		rjmp .L84
 1588               	.LM187:
 1589 0984 6090 0000 		lds r6,file+6
 1590 0988 7090 0000 		lds r7,file+6+1
 1591 098c 8090 0000 		lds r8,file+6+2
 1592 0990 9090 0000 		lds r9,file+6+3
 1593               	.LVL127:
 1594               	.LM188:
 1595 0994 C801      		movw r24,r16
 1596 0996 B701      		movw r22,r14
 1597 0998 0E94 0000 		call fat_getNextCluster
 1598               	.LVL128:
 1599               	.LM189:
 1600 099c 683F      		cpi r22,lo8(268435448)
 1601 099e 2FEF      		ldi r18,hi8(268435448)
 1602 09a0 7207      		cpc r23,r18
 1603 09a2 2FEF      		ldi r18,hlo8(268435448)
 1604 09a4 8207      		cpc r24,r18
 1605 09a6 2FE0      		ldi r18,hhi8(268435448)
 1606 09a8 9207      		cpc r25,r18
 1607 09aa 00F0      		brlo .L86
 1608 09ac 2091 0000 		lds r18,fat+22
 1609 09b0 2032      		cpi r18,lo8(32)
 1610 09b2 01F4      		brne .L87
 1611 09b4 00C0      		rjmp .L88
 1612               	.L86:
 1613 09b6 683F      		cpi r22,lo8(65528)
 1614 09b8 EFEF      		ldi r30,hi8(65528)
 1615 09ba 7E07      		cpc r23,r30
 1616 09bc E0E0      		ldi r30,hlo8(65528)
 1617 09be 8E07      		cpc r24,r30
 1618 09c0 E0E0      		ldi r30,hhi8(65528)
 1619 09c2 9E07      		cpc r25,r30
 1620 09c4 00F0      		brlo .L89
 1621               	.L87:
 1622 09c6 2091 0000 		lds r18,fat+22
 1623 09ca 2031      		cpi r18,lo8(16)
 1624 09cc 01F4      		brne .L89
 1625               	.L88:
 1626               	.LVL129:
 1627               	.LBB14:
 1628               	.LBB15:
 1629               	.LM190:
 1630 09ce 6091 0000 		lds r22,chain
 1631 09d2 7091 0000 		lds r23,chain+1
 1632 09d6 8091 0000 		lds r24,chain+2
 1633 09da 9091 0000 		lds r25,chain+3
 1634               	.LVL130:
 1635 09de 0E94 0000 		call fat_secToClust
 1636 09e2 5B01      		movw r10,r22
 1637 09e4 6C01      		movw r12,r24
 1638               	.LVL131:
 1639               	.LM191:
 1640 09e6 C801      		movw r24,r16
 1641 09e8 B701      		movw r22,r14
 1642               	.LVL132:
 1643 09ea A601      		movw r20,r12
 1644 09ec 9501      		movw r18,r10
 1645 09ee 0E94 0000 		call fat_setCluster
 1646               	.LM192:
 1647 09f2 C601      		movw r24,r12
 1648 09f4 B501      		movw r22,r10
 1649 09f6 2FEF      		ldi r18,lo8(268435455)
 1650 09f8 3FEF      		ldi r19,hi8(268435455)
 1651 09fa 4FEF      		ldi r20,hlo8(268435455)
 1652 09fc 5FE0      		ldi r21,hhi8(268435455)
 1653 09fe 0E94 0000 		call fat_setCluster
 1654               	.LM193:
 1655 0a02 6091 0000 		lds r22,file+6
 1656 0a06 7091 0000 		lds r23,file+6+1
 1657 0a0a 8091 0000 		lds r24,file+6+2
 1658 0a0e 9091 0000 		lds r25,file+6+3
 1659 0a12 40E0      		ldi r20,lo8(fat+24)
 1660 0a14 50E0      		ldi r21,hi8(fat+24)
 1661 0a16 0E94 0000 		call mmc_write_sector
 1662               	.LVL133:
 1663 0a1a E0E0      		ldi r30,lo8(fat+536)
 1664 0a1c F0E0      		ldi r31,hi8(fat+536)
 1665               	.LVL134:
 1666               	.L90:
 1667               	.LM194:
 1668 0a1e 1292      		st -Z,__zero_reg__
 1669               	.LM195:
 1670 0a20 20E0      		ldi r18,hi8(fat+24)
 1671 0a22 E030      		cpi r30,lo8(fat+24)
 1672 0a24 F207      		cpc r31,r18
 1673 0a26 01F4      		brne .L90
 1674 0a28 AA24      		clr r10
 1675               	.LVL135:
 1676 0a2a 00C0      		rjmp .L91
 1677               	.LVL136:
 1678               	.L94:
 1679               	.LM196:
 1680 0a2c A92E      		mov r10,r25
 1681               	.LVL137:
 1682               	.L91:
 1683               	.LM197:
 1684 0a2e 6091 0000 		lds r22,chain
 1685 0a32 7091 0000 		lds r23,chain+1
 1686 0a36 8091 0000 		lds r24,chain+2
 1687 0a3a 9091 0000 		lds r25,chain+3
 1688 0a3e 6A0D      		add r22,r10
 1689 0a40 711D      		adc r23,__zero_reg__
 1690 0a42 811D      		adc r24,__zero_reg__
 1691 0a44 911D      		adc r25,__zero_reg__
 1692 0a46 0E94 0000 		call fat_writeSector
 1693               	.LM198:
 1694 0a4a 9A2D      		mov r25,r10
 1695 0a4c 9F5F      		subi r25,lo8(-(1))
 1696               	.LVL138:
 1697 0a4e 8091 0000 		lds r24,fat+21
 1698 0a52 A816      		cp r10,r24
 1699 0a54 00F0      		brlo .L94
 1700               	.LM199:
 1701 0a56 A090 0000 		lds r10,chain
 1702 0a5a B090 0000 		lds r11,chain+1
 1703 0a5e C090 0000 		lds r12,chain+2
 1704 0a62 D090 0000 		lds r13,chain+3
 1705 0a66 A092 0000 		sts file+6,r10
 1706 0a6a B092 0000 		sts file+6+1,r11
 1707 0a6e C092 0000 		sts file+6+2,r12
 1708 0a72 D092 0000 		sts file+6+3,r13
 1709               	.LBE15:
 1710               	.LBE14:
 1711               	.LM200:
 1712 0a76 C401      		movw r24,r8
 1713 0a78 B301      		movw r22,r6
 1714 0a7a 0E94 0000 		call fat_secToClust
 1715               	.LVL139:
 1716 0a7e 6093 0000 		sts chain+6,r22
 1717 0a82 7093 0000 		sts chain+6+1,r23
 1718 0a86 8093 0000 		sts chain+6+2,r24
 1719 0a8a 9093 0000 		sts chain+6+3,r25
 1720               	.LM201:
 1721 0a8e C601      		movw r24,r12
 1722 0a90 B501      		movw r22,r10
 1723 0a92 0E94 0000 		call fat_getFreeRowsOfCluster.clone.1
 1724               	.LM202:
 1725 0a96 2091 0000 		lds r18,chain+4
 1726 0a9a 3091 0000 		lds r19,chain+4+1
 1727 0a9e E091 0000 		lds r30,fat+21
 1728 0aa2 8E2F      		mov r24,r30
 1729 0aa4 90E0      		ldi r25,lo8(0)
 1730 0aa6 8217      		cp r24,r18
 1731 0aa8 9307      		cpc r25,r19
 1732 0aaa 00F4      		brsh .L92
 1733               	.LM203:
 1734 0aac 4091 0000 		lds r20,chain
 1735 0ab0 5091 0000 		lds r21,chain+1
 1736 0ab4 6091 0000 		lds r22,chain+2
 1737 0ab8 7091 0000 		lds r23,chain+3
 1738 0abc 4E0F      		add r20,r30
 1739 0abe 511D      		adc r21,__zero_reg__
 1740 0ac0 611D      		adc r22,__zero_reg__
 1741 0ac2 711D      		adc r23,__zero_reg__
 1742 0ac4 4093 0000 		sts chain,r20
 1743 0ac8 5093 0000 		sts chain+1,r21
 1744 0acc 6093 0000 		sts chain+2,r22
 1745 0ad0 7093 0000 		sts chain+3,r23
 1746               	.LM204:
 1747 0ad4 281B      		sub r18,r24
 1748 0ad6 390B      		sbc r19,r25
 1749 0ad8 3093 0000 		sts chain+4+1,r19
 1750 0adc 2093 0000 		sts chain+4,r18
 1751 0ae0 00C0      		rjmp .L84
 1752               	.L92:
 1753               	.LM205:
 1754 0ae2 C801      		movw r24,r16
 1755 0ae4 B701      		movw r22,r14
 1756 0ae6 0E94 0000 		call fat_getFreeClustersInRow
 1757               	.LVL140:
 1758               	.L84:
 1759               	.LBE13:
 1760               	.LBE12:
 1761               	.LM206:
 1762 0aea 8091 0000 		lds r24,file+6
 1763 0aee 9091 0000 		lds r25,file+6+1
 1764 0af2 A091 0000 		lds r26,file+6+2
 1765 0af6 B091 0000 		lds r27,file+6+3
 1766 0afa 8093 0000 		sts file+21,r24
 1767 0afe 9093 0000 		sts file+21+1,r25
 1768 0b02 A093 0000 		sts file+21+2,r26
 1769 0b06 B093 0000 		sts file+21+3,r27
 1770               	.LM207:
 1771 0b0a 6091 0000 		lds r22,chain
 1772 0b0e 7091 0000 		lds r23,chain+1
 1773 0b12 8091 0000 		lds r24,chain+2
 1774 0b16 9091 0000 		lds r25,chain+3
 1775 0b1a 0E94 0000 		call fat_secToClust
 1776 0b1e 9B01      		movw r18,r22
 1777 0b20 AC01      		movw r20,r24
 1778 0b22 6093 0000 		sts file+17,r22
 1779 0b26 7093 0000 		sts file+17+1,r23
 1780 0b2a 8093 0000 		sts file+17+2,r24
 1781 0b2e 9093 0000 		sts file+17+3,r25
 1782               	.LM208:
 1783 0b32 6093 0000 		sts chain+6,r22
 1784 0b36 7093 0000 		sts chain+6+1,r23
 1785 0b3a 8093 0000 		sts chain+6+2,r24
 1786 0b3e 9093 0000 		sts chain+6+3,r25
 1787               	.LM209:
 1788 0b42 1092 0000 		sts file+10,__zero_reg__
 1789 0b46 1092 0000 		sts file+10+1,__zero_reg__
 1790 0b4a 1092 0000 		sts file+10+2,__zero_reg__
 1791 0b4e 1092 0000 		sts file+10+3,__zero_reg__
 1792               	.LM210:
 1793 0b52 C201      		movw r24,r4
 1794 0b54 632D      		mov r22,r3
 1795 0b56 EE24      		clr r14
 1796 0b58 FF24      		clr r15
 1797 0b5a 8701      		movw r16,r14
 1798 0b5c 0E94 0000 		call fat_makeSfnDataEntry
 1799               	.LM211:
 1800 0b60 6091 0000 		lds r22,file+6
 1801 0b64 7091 0000 		lds r23,file+6+1
 1802 0b68 8091 0000 		lds r24,file+6+2
 1803 0b6c 9091 0000 		lds r25,file+6+3
 1804 0b70 40E0      		ldi r20,lo8(fat+24)
 1805 0b72 50E0      		ldi r21,hi8(fat+24)
 1806 0b74 0E94 0000 		call mmc_write_sector
 1807               	.LM212:
 1808 0b78 8091 0000 		lds r24,chain
 1809 0b7c 9091 0000 		lds r25,chain+1
 1810 0b80 A091 0000 		lds r26,chain+2
 1811 0b84 B091 0000 		lds r27,chain+3
 1812 0b88 8093 0000 		sts file+6,r24
 1813 0b8c 9093 0000 		sts file+6+1,r25
 1814 0b90 A093 0000 		sts file+6+2,r26
 1815 0b94 B093 0000 		sts file+6+3,r27
 1816               	/* epilogue start */
 1817               	.LM213:
 1818 0b98 0F90      		pop __tmp_reg__
 1819 0b9a CF91      		pop r28
 1820 0b9c DF91      		pop r29
 1821 0b9e 1F91      		pop r17
 1822 0ba0 0F91      		pop r16
 1823 0ba2 FF90      		pop r15
 1824 0ba4 EF90      		pop r14
 1825 0ba6 DF90      		pop r13
 1826 0ba8 CF90      		pop r12
 1827 0baa BF90      		pop r11
 1828 0bac AF90      		pop r10
 1829 0bae 9F90      		pop r9
 1830 0bb0 8F90      		pop r8
 1831 0bb2 7F90      		pop r7
 1832 0bb4 6F90      		pop r6
 1833 0bb6 5F90      		pop r5
 1834 0bb8 4F90      		pop r4
 1835               	.LVL141:
 1836 0bba 3F90      		pop r3
 1837               	.LVL142:
 1838 0bbc 0895      		ret
 1839               	.LFE7:
 1841               	.global	fat_delClusterChain
 1843               	fat_delClusterChain:
 1844               	.LFB17:
 1845               	.LM214:
 1846               	.LVL143:
 1847 0bbe AF92      		push r10
 1848 0bc0 BF92      		push r11
 1849 0bc2 CF92      		push r12
 1850 0bc4 DF92      		push r13
 1851 0bc6 EF92      		push r14
 1852 0bc8 FF92      		push r15
 1853 0bca 0F93      		push r16
 1854 0bcc 1F93      		push r17
 1855               	/* prologue: function */
 1856               	/* frame size = 0 */
 1857               	/* stack size = 8 */
 1858               	.L__stack_usage = 8
 1859               	.LVL144:
 1860               	.LM215:
 1861 0bce 5B01      		movw r10,r22
 1862 0bd0 6C01      		movw r12,r24
 1863 0bd2 00C0      		rjmp .L99
 1864               	.LVL145:
 1865               	.L103:
 1866               	.LM216:
 1867 0bd4 5701      		movw r10,r14
 1868               	.LVL146:
 1869 0bd6 6801      		movw r12,r16
 1870               	.LVL147:
 1871               	.L99:
 1872               	.LM217:
 1873 0bd8 B501      		movw r22,r10
 1874 0bda C601      		movw r24,r12
 1875 0bdc 0E94 0000 		call fat_getNextCluster
 1876 0be0 7B01      		movw r14,r22
 1877 0be2 8C01      		movw r16,r24
 1878               	.LVL148:
 1879               	.LM218:
 1880 0be4 B501      		movw r22,r10
 1881               	.LVL149:
 1882 0be6 C601      		movw r24,r12
 1883 0be8 20E0      		ldi r18,lo8(0)
 1884 0bea 30E0      		ldi r19,hi8(0)
 1885 0bec A901      		movw r20,r18
 1886 0bee 0E94 0000 		call fat_setCluster
 1887               	.LM219:
 1888 0bf2 88EF      		ldi r24,lo8(268435448)
 1889 0bf4 E816      		cp r14,r24
 1890 0bf6 8FEF      		ldi r24,hi8(268435448)
 1891 0bf8 F806      		cpc r15,r24
 1892 0bfa 8FEF      		ldi r24,hlo8(268435448)
 1893 0bfc 0807      		cpc r16,r24
 1894 0bfe 8FE0      		ldi r24,hhi8(268435448)
 1895 0c00 1807      		cpc r17,r24
 1896 0c02 00F0      		brlo .L100
 1897               	.LM220:
 1898 0c04 8091 0000 		lds r24,fat+22
 1899 0c08 8032      		cpi r24,lo8(32)
 1900 0c0a 01F4      		brne .L101
 1901 0c0c 00C0      		rjmp .L102
 1902               	.L100:
 1903               	.LM221:
 1904 0c0e 88EF      		ldi r24,lo8(65528)
 1905 0c10 E816      		cp r14,r24
 1906 0c12 8FEF      		ldi r24,hi8(65528)
 1907 0c14 F806      		cpc r15,r24
 1908 0c16 80E0      		ldi r24,hlo8(65528)
 1909 0c18 0807      		cpc r16,r24
 1910 0c1a 80E0      		ldi r24,hhi8(65528)
 1911 0c1c 1807      		cpc r17,r24
 1912 0c1e 00F0      		brlo .L103
 1913               	.L101:
 1914               	.LM222:
 1915 0c20 8091 0000 		lds r24,fat+22
 1916 0c24 8031      		cpi r24,lo8(16)
 1917 0c26 01F4      		brne .L103
 1918               	.L102:
 1919               	.LM223:
 1920 0c28 6091 0000 		lds r22,file+6
 1921 0c2c 7091 0000 		lds r23,file+6+1
 1922 0c30 8091 0000 		lds r24,file+6+2
 1923 0c34 9091 0000 		lds r25,file+6+3
 1924 0c38 0E94 0000 		call fat_writeSector
 1925               	/* epilogue start */
 1926               	.LM224:
 1927 0c3c 1F91      		pop r17
 1928 0c3e 0F91      		pop r16
 1929 0c40 FF90      		pop r15
 1930 0c42 EF90      		pop r14
 1931               	.LVL150:
 1932 0c44 DF90      		pop r13
 1933               	.LVL151:
 1934 0c46 CF90      		pop r12
 1935 0c48 BF90      		pop r11
 1936 0c4a AF90      		pop r10
 1937 0c4c 0895      		ret
 1938               	.LFE17:
 1940               	.global	fat_loadFatData
 1942               	fat_loadFatData:
 1943               	.LFB18:
 1944               	.LM225:
 1945 0c4e AF92      		push r10
 1946 0c50 BF92      		push r11
 1947 0c52 CF92      		push r12
 1948 0c54 DF92      		push r13
 1949 0c56 EF92      		push r14
 1950 0c58 FF92      		push r15
 1951 0c5a 0F93      		push r16
 1952 0c5c 1F93      		push r17
 1953               	/* prologue: function */
 1954               	/* frame size = 0 */
 1955               	/* stack size = 8 */
 1956               	.L__stack_usage = 8
 1957               	.LM226:
 1958 0c5e 60E0      		ldi r22,lo8(0)
 1959 0c60 70E0      		ldi r23,hi8(0)
 1960 0c62 CB01      		movw r24,r22
 1961 0c64 40E0      		ldi r20,lo8(fat+24)
 1962 0c66 50E0      		ldi r21,hi8(fat+24)
 1963 0c68 0E94 0000 		call mmc_read_sector
 1964 0c6c 8130      		cpi r24,lo8(1)
 1965 0c6e 01F0      		breq .+2
 1966 0c70 00C0      		rjmp .L109
 1967               	.LVL152:
 1968               	.LM227:
 1969 0c72 8091 0000 		lds r24,fat+481
 1970 0c76 8823      		tst r24
 1971 0c78 01F4      		brne .L110
 1972               	.LVL153:
 1973               	.LM228:
 1974 0c7a E090 0000 		lds r14,fat+478
 1975 0c7e F090 0000 		lds r15,fat+478+1
 1976 0c82 0091 0000 		lds r16,fat+478+2
 1977 0c86 1091 0000 		lds r17,fat+478+3
 1978               	.LVL154:
 1979               	.LM229:
 1980 0c8a C801      		movw r24,r16
 1981 0c8c B701      		movw r22,r14
 1982 0c8e 40E0      		ldi r20,lo8(fat+24)
 1983 0c90 50E0      		ldi r21,hi8(fat+24)
 1984 0c92 0E94 0000 		call mmc_read_sector
 1985               	.LVL155:
 1986 0c96 00C0      		rjmp .L106
 1987               	.LVL156:
 1988               	.L110:
 1989               	.LM230:
 1990 0c98 EE24      		clr r14
 1991 0c9a FF24      		clr r15
 1992 0c9c 8701      		movw r16,r14
 1993               	.LVL157:
 1994               	.L106:
 1995               	.LM231:
 1996 0c9e 8091 0000 		lds r24,fat+37
 1997 0ca2 8093 0000 		sts fat+21,r24
 1998               	.LVL158:
 1999               	.LM232:
 2000 0ca6 A090 0000 		lds r10,fat+38
 2001 0caa B090 0000 		lds r11,fat+38+1
 2002 0cae CC24      		clr r12
 2003 0cb0 DD24      		clr r13
 2004               	.LVL159:
 2005               	.LM233:
 2006 0cb2 E091 0000 		lds r30,fat+46
 2007 0cb6 F091 0000 		lds r31,fat+46+1
 2008               	.LVL160:
 2009               	.LM234:
 2010 0cba 2091 0000 		lds r18,fat+41
 2011 0cbe 3091 0000 		lds r19,fat+41+1
 2012 0cc2 B5E0      		ldi r27,5
 2013 0cc4 220F      	1:	lsl r18
 2014 0cc6 331F      		rol r19
 2015 0cc8 BA95      		dec r27
 2016 0cca 01F4      		brne 1b
 2017 0ccc 2150      		subi r18,lo8(-(511))
 2018 0cce 3E4F      		sbci r19,hi8(-(511))
 2019 0cd0 232F      		mov r18,r19
 2020 0cd2 3327      		clr r19
 2021 0cd4 2695      		lsr r18
 2022 0cd6 40E0      		ldi r20,lo8(0)
 2023 0cd8 50E0      		ldi r21,hi8(0)
 2024 0cda 6091 0000 		lds r22,fat+40
 2025               	.LM235:
 2026 0cde 2115      		cp r18,__zero_reg__
 2027 0ce0 3105      		cpc r19,__zero_reg__
 2028 0ce2 4105      		cpc r20,__zero_reg__
 2029 0ce4 5105      		cpc r21,__zero_reg__
 2030 0ce6 01F4      		brne .L107
 2031               	.LVL161:
 2032               	.LM236:
 2033 0ce8 2091 0000 		lds r18,fat+60
 2034 0cec 3091 0000 		lds r19,fat+60+1
 2035 0cf0 4091 0000 		lds r20,fat+60+2
 2036 0cf4 5091 0000 		lds r21,fat+60+3
 2037               	.LVL162:
 2038               	.LM237:
 2039 0cf8 8091 0000 		lds r24,fat+68
 2040 0cfc 9091 0000 		lds r25,fat+68+1
 2041 0d00 A091 0000 		lds r26,fat+68+2
 2042 0d04 B091 0000 		lds r27,fat+68+3
 2043 0d08 8093 0000 		sts fat+9,r24
 2044 0d0c 9093 0000 		sts fat+9+1,r25
 2045 0d10 A093 0000 		sts fat+9+2,r26
 2046 0d14 B093 0000 		sts fat+9+3,r27
 2047               	.LM238:
 2048 0d18 70E0      		ldi r23,lo8(0)
 2049 0d1a 80E0      		ldi r24,lo8(0)
 2050 0d1c 90E0      		ldi r25,hi8(0)
 2051 0d1e 0E94 0000 		call __mulsi3
 2052 0d22 6A0D      		add r22,r10
 2053 0d24 7B1D      		adc r23,r11
 2054 0d26 8C1D      		adc r24,r12
 2055 0d28 9D1D      		adc r25,r13
 2056 0d2a 6093 0000 		sts fat+13,r22
 2057 0d2e 7093 0000 		sts fat+13+1,r23
 2058 0d32 8093 0000 		sts fat+13+2,r24
 2059 0d36 9093 0000 		sts fat+13+3,r25
 2060               	.LM239:
 2061 0d3a 80E2      		ldi r24,lo8(32)
 2062 0d3c 00C0      		rjmp .L111
 2063               	.LVL163:
 2064               	.L107:
 2065               	.LM240:
 2066 0d3e 70E0      		ldi r23,lo8(0)
 2067 0d40 6E9F      		mul r22,r30
 2068 0d42 C001      		movw r24,r0
 2069 0d44 6F9F      		mul r22,r31
 2070 0d46 900D      		add r25,r0
 2071 0d48 7E9F      		mul r23,r30
 2072 0d4a 900D      		add r25,r0
 2073 0d4c 1124      		clr r1
 2074 0d4e A0E0      		ldi r26,lo8(0)
 2075 0d50 B0E0      		ldi r27,hi8(0)
 2076 0d52 8A0D      		add r24,r10
 2077 0d54 9B1D      		adc r25,r11
 2078 0d56 AC1D      		adc r26,r12
 2079 0d58 BD1D      		adc r27,r13
 2080 0d5a 820F      		add r24,r18
 2081 0d5c 931F      		adc r25,r19
 2082 0d5e A41F      		adc r26,r20
 2083 0d60 B51F      		adc r27,r21
 2084 0d62 8093 0000 		sts fat+13,r24
 2085 0d66 9093 0000 		sts fat+13+1,r25
 2086 0d6a A093 0000 		sts fat+13+2,r26
 2087 0d6e B093 0000 		sts fat+13+3,r27
 2088               	.LM241:
 2089 0d72 821B      		sub r24,r18
 2090 0d74 930B      		sbc r25,r19
 2091 0d76 A40B      		sbc r26,r20
 2092 0d78 B50B      		sbc r27,r21
 2093               	.LM242:
 2094 0d7a 8E0D      		add r24,r14
 2095 0d7c 9F1D      		adc r25,r15
 2096 0d7e A01F      		adc r26,r16
 2097 0d80 B11F      		adc r27,r17
 2098 0d82 8093 0000 		sts fat+9,r24
 2099 0d86 9093 0000 		sts fat+9+1,r25
 2100 0d8a A093 0000 		sts fat+9+2,r26
 2101 0d8e B093 0000 		sts fat+9+3,r27
 2102               	.LM243:
 2103 0d92 80E1      		ldi r24,lo8(16)
 2104               	.LVL164:
 2105               	.L111:
 2106 0d94 8093 0000 		sts fat+22,r24
 2107               	.LM244:
 2108 0d98 AE0C      		add r10,r14
 2109 0d9a BF1C      		adc r11,r15
 2110 0d9c C01E      		adc r12,r16
 2111 0d9e D11E      		adc r13,r17
 2112 0da0 A092 0000 		sts fat+17,r10
 2113 0da4 B092 0000 		sts fat+17+1,r11
 2114 0da8 C092 0000 		sts fat+17+2,r12
 2115 0dac D092 0000 		sts fat+17+3,r13
 2116               	.LM245:
 2117 0db0 8091 0000 		lds r24,fat+13
 2118 0db4 9091 0000 		lds r25,fat+13+1
 2119 0db8 A091 0000 		lds r26,fat+13+2
 2120 0dbc B091 0000 		lds r27,fat+13+3
 2121 0dc0 8E0D      		add r24,r14
 2122 0dc2 9F1D      		adc r25,r15
 2123 0dc4 A01F      		adc r26,r16
 2124 0dc6 B11F      		adc r27,r17
 2125 0dc8 8093 0000 		sts fat+13,r24
 2126 0dcc 9093 0000 		sts fat+13+1,r25
 2127 0dd0 A093 0000 		sts fat+13+2,r26
 2128 0dd4 B093 0000 		sts fat+13+3,r27
 2129               	.LM246:
 2130 0dd8 1092 0000 		sts fat+5,__zero_reg__
 2131 0ddc 1092 0000 		sts fat+5+1,__zero_reg__
 2132 0de0 1092 0000 		sts fat+5+2,__zero_reg__
 2133 0de4 1092 0000 		sts fat+5+3,__zero_reg__
 2134               	.LM247:
 2135 0de8 81E0      		ldi r24,lo8(1)
 2136 0dea 00C0      		rjmp .L105
 2137               	.LVL165:
 2138               	.L109:
 2139               	.LM248:
 2140 0dec 80E0      		ldi r24,lo8(0)
 2141               	.L105:
 2142               	/* epilogue start */
 2143               	.LM249:
 2144 0dee 1F91      		pop r17
 2145 0df0 0F91      		pop r16
 2146 0df2 FF90      		pop r15
 2147 0df4 EF90      		pop r14
 2148 0df6 DF90      		pop r13
 2149 0df8 CF90      		pop r12
 2150 0dfa BF90      		pop r11
 2151 0dfc AF90      		pop r10
 2152 0dfe 0895      		ret
 2153               	.LFE18:
 2155               	.global	fat_getFreeBytes
 2157               	fat_getFreeBytes:
 2158               	.LFB19:
 2159               	.LM250:
 2160 0e00 3F92      		push r3
 2161 0e02 4F92      		push r4
 2162 0e04 5F92      		push r5
 2163 0e06 6F92      		push r6
 2164 0e08 7F92      		push r7
 2165 0e0a 8F92      		push r8
 2166 0e0c 9F92      		push r9
 2167 0e0e AF92      		push r10
 2168 0e10 BF92      		push r11
 2169 0e12 CF92      		push r12
 2170 0e14 DF92      		push r13
 2171 0e16 EF92      		push r14
 2172 0e18 FF92      		push r15
 2173 0e1a 0F93      		push r16
 2174 0e1c 1F93      		push r17
 2175 0e1e DF93      		push r29
 2176 0e20 CF93      		push r28
 2177 0e22 00D0      		rcall .
 2178 0e24 0F92      		push __tmp_reg__
 2179 0e26 CDB7      		in r28,__SP_L__
 2180 0e28 DEB7      		in r29,__SP_H__
 2181               	/* prologue: function */
 2182               	/* frame size = 3 */
 2183               	/* stack size = 20 */
 2184               	.L__stack_usage = 20
 2185               	.LM251:
 2186 0e2a 60E0      		ldi r22,lo8(0)
 2187 0e2c 70E0      		ldi r23,hi8(0)
 2188 0e2e CB01      		movw r24,r22
 2189 0e30 0E94 0000 		call fat_loadSector
 2190               	.LVL166:
 2191               	.LM252:
 2192 0e34 6091 0000 		lds r22,fat+478
 2193 0e38 7091 0000 		lds r23,fat+478+1
 2194 0e3c 8091 0000 		lds r24,fat+478+2
 2195 0e40 9091 0000 		lds r25,fat+478+3
 2196               	.LVL167:
 2197               	.LM253:
 2198 0e44 6D34      		cpi r22,lo8(1768187213)
 2199 0e46 25E6      		ldi r18,hi8(1768187213)
 2200 0e48 7207      		cpc r23,r18
 2201 0e4a 24E6      		ldi r18,hlo8(1768187213)
 2202 0e4c 8207      		cpc r24,r18
 2203 0e4e 29E6      		ldi r18,hhi8(1768187213)
 2204 0e50 9207      		cpc r25,r18
 2205 0e52 01F0      		breq .L113
 2206               	.LM254:
 2207 0e54 0E94 0000 		call fat_loadSector
 2208               	.LVL168:
 2209               	.L113:
 2210               	.LM255:
 2211 0e58 8091 0000 		lds r24,fat+22
 2212 0e5c 8032      		cpi r24,lo8(32)
 2213 0e5e 01F4      		brne .L114
 2214               	.LVL169:
 2215               	.LM256:
 2216 0e60 E090 0000 		lds r14,fat+60
 2217 0e64 F090 0000 		lds r15,fat+60+1
 2218 0e68 0091 0000 		lds r16,fat+60+2
 2219 0e6c 1091 0000 		lds r17,fat+60+3
 2220 0e70 0894      		sec
 2221 0e72 E108      		sbc r14,__zero_reg__
 2222 0e74 F108      		sbc r15,__zero_reg__
 2223 0e76 0109      		sbc r16,__zero_reg__
 2224 0e78 1109      		sbc r17,__zero_reg__
 2225               	.LVL170:
 2226               	.LM257:
 2227 0e7a 97E0      		ldi r25,7
 2228 0e7c EE0C      	1:	lsl r14
 2229 0e7e FF1C      		rol r15
 2230 0e80 001F      		rol r16
 2231 0e82 111F      		rol r17
 2232 0e84 9A95      		dec r25
 2233 0e86 01F4      		brne 1b
 2234               	.LVL171:
 2235 0e88 00C0      		rjmp .L115
 2236               	.LVL172:
 2237               	.L114:
 2238               	.LM258:
 2239 0e8a E090 0000 		lds r14,fat+46
 2240 0e8e F090 0000 		lds r15,fat+46+1
 2241 0e92 0894      		sec
 2242 0e94 E108      		sbc r14,__zero_reg__
 2243 0e96 F108      		sbc r15,__zero_reg__
 2244 0e98 00E0      		ldi r16,lo8(0)
 2245 0e9a 10E0      		ldi r17,hi8(0)
 2246               	.LVL173:
 2247               	.LM259:
 2248 0e9c 102F      		mov r17,r16
 2249 0e9e 0F2D      		mov r16,r15
 2250 0ea0 FE2C      		mov r15,r14
 2251 0ea2 EE24      		clr r14
 2252               	.LVL174:
 2253               	.L115:
 2254               	.LM260:
 2255 0ea4 40E0      		ldi r20,lo8(0)
 2256 0ea6 50E0      		ldi r21,hi8(0)
 2257               	.LM261:
 2258 0ea8 AA24      		clr r10
 2259 0eaa BB24      		clr r11
 2260 0eac 6501      		movw r12,r10
 2261               	.LM262:
 2262 0eae 20E0      		ldi r18,lo8(0)
 2263 0eb0 9924      		clr r9
 2264 0eb2 8824      		clr r8
 2265 0eb4 7724      		clr r7
 2266 0eb6 6624      		clr r6
 2267 0eb8 5524      		clr r5
 2268 0eba 4424      		clr r4
 2269 0ebc 3324      		clr r3
 2270               	.LVL175:
 2271               	.L130:
 2272               	.LM263:
 2273 0ebe C601      		movw r24,r12
 2274 0ec0 B501      		movw r22,r10
 2275 0ec2 2B83      		std Y+3,r18
 2276 0ec4 4983      		std Y+1,r20
 2277 0ec6 5A83      		std Y+2,r21
 2278 0ec8 0E94 0000 		call fat_getNextCluster
 2279               	.LVL176:
 2280 0ecc 2B81      		ldd r18,Y+3
 2281 0ece 4981      		ldd r20,Y+1
 2282 0ed0 5A81      		ldd r21,Y+2
 2283 0ed2 6115      		cp r22,__zero_reg__
 2284 0ed4 7105      		cpc r23,__zero_reg__
 2285 0ed6 8105      		cpc r24,__zero_reg__
 2286 0ed8 9105      		cpc r25,__zero_reg__
 2287 0eda 01F4      		brne .L116
 2288               	.LM264:
 2289 0edc 4F5F      		subi r20,lo8(-(1))
 2290 0ede 5F4F      		sbci r21,hi8(-(1))
 2291               	.LVL177:
 2292               	.LM265:
 2293 0ee0 4E3F      		cpi r20,254
 2294 0ee2 5105      		cpc r21,__zero_reg__
 2295 0ee4 01F4      		brne .L116
 2296               	.LM266:
 2297 0ee6 E22F      		mov r30,r18
 2298 0ee8 E250      		subi r30,lo8(-(-2))
 2299 0eea 71E0      		ldi r23,lo8(1)
 2300 0eec E217      		cp r30,r18
 2301 0eee 00F0      		brlo .L117
 2302 0ef0 70E0      		ldi r23,lo8(0)
 2303               	.L117:
 2304 0ef2 790D      		add r23,r9
 2305 0ef4 61E0      		ldi r22,lo8(1)
 2306 0ef6 7915      		cp r23,r9
 2307 0ef8 00F0      		brlo .L119
 2308 0efa 60E0      		ldi r22,lo8(0)
 2309               	.L119:
 2310 0efc 680D      		add r22,r8
 2311 0efe 51E0      		ldi r21,lo8(1)
 2312 0f00 6815      		cp r22,r8
 2313 0f02 00F0      		brlo .L121
 2314 0f04 50E0      		ldi r21,lo8(0)
 2315               	.L121:
 2316 0f06 570D      		add r21,r7
 2317 0f08 41E0      		ldi r20,lo8(1)
 2318               	.LVL178:
 2319 0f0a 5715      		cp r21,r7
 2320 0f0c 00F0      		brlo .L123
 2321 0f0e 40E0      		ldi r20,lo8(0)
 2322               	.L123:
 2323 0f10 460D      		add r20,r6
 2324 0f12 31E0      		ldi r19,lo8(1)
 2325 0f14 4615      		cp r20,r6
 2326 0f16 00F0      		brlo .L125
 2327 0f18 30E0      		ldi r19,lo8(0)
 2328               	.L125:
 2329 0f1a 350D      		add r19,r5
 2330 0f1c 91E0      		ldi r25,lo8(1)
 2331 0f1e 3515      		cp r19,r5
 2332 0f20 00F0      		brlo .L127
 2333 0f22 90E0      		ldi r25,lo8(0)
 2334               	.L127:
 2335 0f24 940D      		add r25,r4
 2336 0f26 81E0      		ldi r24,lo8(1)
 2337 0f28 9415      		cp r25,r4
 2338 0f2a 00F0      		brlo .L129
 2339 0f2c 80E0      		ldi r24,lo8(0)
 2340               	.L129:
 2341 0f2e 2E2F      		mov r18,r30
 2342 0f30 4B01      		movw r8,r22
 2343 0f32 3A01      		movw r6,r20
 2344 0f34 532E      		mov r5,r19
 2345 0f36 492E      		mov r4,r25
 2346 0f38 380E      		add r3,r24
 2347               	.LVL179:
 2348               	.LM267:
 2349 0f3a 40E0      		ldi r20,lo8(0)
 2350 0f3c 50E0      		ldi r21,hi8(0)
 2351               	.LVL180:
 2352               	.L116:
 2353               	.LM268:
 2354 0f3e 0894      		sec
 2355 0f40 A11C      		adc r10,__zero_reg__
 2356 0f42 B11C      		adc r11,__zero_reg__
 2357 0f44 C11C      		adc r12,__zero_reg__
 2358 0f46 D11C      		adc r13,__zero_reg__
 2359               	.LVL181:
 2360               	.LM269:
 2361 0f48 AE14      		cp r10,r14
 2362 0f4a BF04      		cpc r11,r15
 2363 0f4c C006      		cpc r12,r16
 2364 0f4e D106      		cpc r13,r17
 2365 0f50 00F4      		brsh .+2
 2366 0f52 00C0      		rjmp .L130
 2367               	.LVL182:
 2368               	.LM270:
 2369 0f54 5A01      		movw r10,r20
 2370               	.LVL183:
 2371 0f56 CC24      		clr r12
 2372 0f58 DD24      		clr r13
 2373 0f5a EE24      		clr r14
 2374 0f5c FF24      		clr r15
 2375 0f5e 8701      		movw r16,r14
 2376               	.LVL184:
 2377 0f60 240F      		add r18,r20
 2378               	.LVL185:
 2379 0f62 31E0      		ldi r19,lo8(1)
 2380 0f64 2417      		cp r18,r20
 2381 0f66 00F0      		brlo .L131
 2382 0f68 30E0      		ldi r19,lo8(0)
 2383               	.L131:
 2384 0f6a 9B0C      		add r9,r11
 2385 0f6c 41E0      		ldi r20,lo8(1)
 2386               	.LVL186:
 2387 0f6e 9B14      		cp r9,r11
 2388 0f70 00F0      		brlo .L132
 2389 0f72 40E0      		ldi r20,lo8(0)
 2390               	.L132:
 2391 0f74 390D      		add r19,r9
 2392 0f76 81E0      		ldi r24,lo8(1)
 2393 0f78 3915      		cp r19,r9
 2394 0f7a 00F0      		brlo .L133
 2395 0f7c 80E0      		ldi r24,lo8(0)
 2396               	.L133:
 2397 0f7e 482B      		or r20,r24
 2398 0f80 8C0C      		add r8,r12
 2399 0f82 51E0      		ldi r21,lo8(1)
 2400 0f84 8C14      		cp r8,r12
 2401 0f86 00F0      		brlo .L134
 2402 0f88 50E0      		ldi r21,lo8(0)
 2403               	.L134:
 2404 0f8a 480D      		add r20,r8
 2405 0f8c 81E0      		ldi r24,lo8(1)
 2406 0f8e 4815      		cp r20,r8
 2407 0f90 00F0      		brlo .L135
 2408 0f92 80E0      		ldi r24,lo8(0)
 2409               	.L135:
 2410 0f94 582B      		or r21,r24
 2411 0f96 7D0C      		add r7,r13
 2412 0f98 61E0      		ldi r22,lo8(1)
 2413 0f9a 7D14      		cp r7,r13
 2414 0f9c 00F0      		brlo .L136
 2415 0f9e 60E0      		ldi r22,lo8(0)
 2416               	.L136:
 2417 0fa0 570D      		add r21,r7
 2418 0fa2 81E0      		ldi r24,lo8(1)
 2419 0fa4 5715      		cp r21,r7
 2420 0fa6 00F0      		brlo .L137
 2421 0fa8 80E0      		ldi r24,lo8(0)
 2422               	.L137:
 2423 0faa 682B      		or r22,r24
 2424 0fac 6E0C      		add r6,r14
 2425 0fae 71E0      		ldi r23,lo8(1)
 2426 0fb0 6E14      		cp r6,r14
 2427 0fb2 00F0      		brlo .L138
 2428 0fb4 70E0      		ldi r23,lo8(0)
 2429               	.L138:
 2430 0fb6 660D      		add r22,r6
 2431 0fb8 81E0      		ldi r24,lo8(1)
 2432 0fba 6615      		cp r22,r6
 2433 0fbc 00F0      		brlo .L139
 2434 0fbe 80E0      		ldi r24,lo8(0)
 2435               	.L139:
 2436 0fc0 782B      		or r23,r24
 2437 0fc2 5F0C      		add r5,r15
 2438 0fc4 81E0      		ldi r24,lo8(1)
 2439 0fc6 5F14      		cp r5,r15
 2440 0fc8 00F0      		brlo .L140
 2441 0fca 80E0      		ldi r24,lo8(0)
 2442               	.L140:
 2443 0fcc 750D      		add r23,r5
 2444 0fce 91E0      		ldi r25,lo8(1)
 2445 0fd0 7515      		cp r23,r5
 2446 0fd2 00F0      		brlo .L141
 2447 0fd4 90E0      		ldi r25,lo8(0)
 2448               	.L141:
 2449 0fd6 892B      		or r24,r25
 2450 0fd8 400E      		add r4,r16
 2451 0fda 91E0      		ldi r25,lo8(1)
 2452 0fdc 4016      		cp r4,r16
 2453 0fde 00F0      		brlo .L142
 2454 0fe0 90E0      		ldi r25,lo8(0)
 2455               	.L142:
 2456 0fe2 840D      		add r24,r4
 2457 0fe4 E1E0      		ldi r30,lo8(1)
 2458 0fe6 8415      		cp r24,r4
 2459 0fe8 00F0      		brlo .L143
 2460 0fea E0E0      		ldi r30,lo8(0)
 2461               	.L143:
 2462 0fec 9E2B      		or r25,r30
 2463 0fee 310E      		add r3,r17
 2464               	.LM271:
 2465 0ff0 A090 0000 		lds r10,fat+21
 2466               	.LVL187:
 2467 0ff4 930D      		add r25,r3
 2468 0ff6 BB24      		clr r11
 2469 0ff8 CC24      		clr r12
 2470 0ffa DD24      		clr r13
 2471 0ffc EE24      		clr r14
 2472 0ffe FF24      		clr r15
 2473 1000 00E0      		ldi r16,lo8(0)
 2474 1002 10E0      		ldi r17,lo8(0)
 2475 1004 0E94 0000 		call __muldi3
 2476 1008 09E0      		ldi r16,lo8(9)
 2477 100a 0E94 0000 		call __ashldi3
 2478               	/* epilogue start */
 2479               	.LM272:
 2480 100e 0F90      		pop __tmp_reg__
 2481 1010 0F90      		pop __tmp_reg__
 2482 1012 0F90      		pop __tmp_reg__
 2483 1014 CF91      		pop r28
 2484 1016 DF91      		pop r29
 2485 1018 1F91      		pop r17
 2486 101a 0F91      		pop r16
 2487 101c FF90      		pop r15
 2488 101e EF90      		pop r14
 2489 1020 DF90      		pop r13
 2490 1022 CF90      		pop r12
 2491 1024 BF90      		pop r11
 2492 1026 AF90      		pop r10
 2493 1028 9F90      		pop r9
 2494 102a 8F90      		pop r8
 2495 102c 7F90      		pop r7
 2496 102e 6F90      		pop r6
 2497 1030 5F90      		pop r5
 2498 1032 4F90      		pop r4
 2499 1034 3F90      		pop r3
 2500 1036 0895      		ret
 2501               	.LFE19:
 2503               		.comm fat,536,1
 2504               		.comm chain,10,1
 2505               		.lcomm match.1610,1
 2666               	.Letext0:
DEFINED SYMBOLS
                            *ABS*:0000000000000000 fat.c
     /tmp/ccST1cZB.s:2      *ABS*:000000000000003f __SREG__
     /tmp/ccST1cZB.s:3      *ABS*:000000000000003e __SP_H__
     /tmp/ccST1cZB.s:4      *ABS*:000000000000003d __SP_L__
     /tmp/ccST1cZB.s:5      *ABS*:0000000000000034 __CCP__
     /tmp/ccST1cZB.s:6      *ABS*:0000000000000000 __tmp_reg__
     /tmp/ccST1cZB.s:7      *ABS*:0000000000000001 __zero_reg__
     /tmp/ccST1cZB.s:18     .text:0000000000000000 fat_writeSector
                            *COM*:0000000000000218 fat
     /tmp/ccST1cZB.s:40     .text:000000000000000e fat_loadSector
     /tmp/ccST1cZB.s:109    .text:0000000000000090 fat_getFreeRowsOfCluster.clone.1
                             .bss:0000000000000000 match.1610
     /tmp/ccST1cZB.s:209    .text:000000000000010c fat_clustToSec
     /tmp/ccST1cZB.s:248    .text:0000000000000144 fat_secToClust
     /tmp/ccST1cZB.s:284    .text:0000000000000178 fat_loadRowOfSector
     /tmp/ccST1cZB.s:342    .text:00000000000001d2 fat_loadFileDataFromCluster
     /tmp/ccST1cZB.s:562    .text:0000000000000326 fat_makeSfnDataEntry
     /tmp/ccST1cZB.s:755    .text:000000000000042c fat_getNextCluster
     /tmp/ccST1cZB.s:871    .text:00000000000004e6 fat_loadFileDataFromDir
     /tmp/ccST1cZB.s:1006   .text:00000000000005c0 fat_getFatChainClustersInRow
                            *COM*:000000000000000a chain
     /tmp/ccST1cZB.s:1137   .text:000000000000069a fat_getFreeClustersInRow
     /tmp/ccST1cZB.s:1249   .text:0000000000000758 fat_setCluster
     /tmp/ccST1cZB.s:1376   .text:0000000000000824 fat_setClusterChain
     /tmp/ccST1cZB.s:1483   .text:00000000000008dc fat_makeFileEntry
     /tmp/ccST1cZB.s:1843   .text:0000000000000bbe fat_delClusterChain
     /tmp/ccST1cZB.s:1942   .text:0000000000000c4e fat_loadFatData
     /tmp/ccST1cZB.s:2157   .text:0000000000000e00 fat_getFreeBytes

UNDEFINED SYMBOLS
mmc_write_sector
file
mmc_read_sector
__mulsi3
__udivmodsi4
toupper
__muldi3
__ashldi3
__do_clear_bss
